
pk:     file format elf64-littleriscv


Disassembly of section .text:

0000000080000000 <_ftext>:
    80000000:	1f80006f          	j	800001f8 <do_reset>

0000000080000004 <trap_vector>:
    80000004:	34011173          	csrrw	sp,mscratch,sp
    80000008:	1a010863          	beqz	sp,800001b8 <restore_regs+0x80>
    8000000c:	04a13823          	sd	a0,80(sp)
    80000010:	04b13c23          	sd	a1,88(sp)
    80000014:	342025f3          	csrr	a1,mcause
    80000018:	0805d263          	bgez	a1,8000009c <trap_vector+0x98>
    8000001c:	00159593          	slli	a1,a1,0x1
    80000020:	00e00513          	li	a0,14
    80000024:	02b51263          	bne	a0,a1,80000048 <trap_vector+0x44>
    80000028:	08000513          	li	a0,128
    8000002c:	30453073          	csrc	mie,a0
    80000030:	02000513          	li	a0,32
    80000034:	34452073          	csrs	mip,a0
    80000038:	05013503          	ld	a0,80(sp)
    8000003c:	05813583          	ld	a1,88(sp)
    80000040:	34011173          	csrrw	sp,mscratch,sp
    80000044:	30200073          	mret
    80000048:	00600513          	li	a0,6
    8000004c:	18b51263          	bne	a0,a1,800001d0 <restore_regs+0x98>
    80000050:	10013503          	ld	a0,256(sp)
    80000054:	00052023          	sw	zero,0(a0)
    80000058:	0ff0000f          	fence
    8000005c:	10810513          	addi	a0,sp,264
    80000060:	0805252f          	amoswap.w	a0,zero,(a0)
    80000064:	00157593          	andi	a1,a0,1
    80000068:	00058463          	beqz	a1,80000070 <trap_vector+0x6c>
    8000006c:	34416073          	csrsi	mip,2
    80000070:	00257593          	andi	a1,a0,2
    80000074:	00058463          	beqz	a1,8000007c <trap_vector+0x78>
    80000078:	0000100f          	fence.i
    8000007c:	00457593          	andi	a1,a0,4
    80000080:	00058463          	beqz	a1,80000088 <trap_vector+0x84>
    80000084:	12000073          	sfence.vma
    80000088:	00857593          	andi	a1,a0,8
    8000008c:	00058663          	beqz	a1,80000098 <trap_vector+0x94>
    80000090:	10500073          	wfi
    80000094:	ff5ff06f          	j	80000088 <trap_vector+0x84>
    80000098:	fa1ff06f          	j	80000038 <trap_vector+0x34>
    8000009c:	00113423          	sd	ra,8(sp)
    800000a0:	00313c23          	sd	gp,24(sp)
    800000a4:	02413023          	sd	tp,32(sp)
    800000a8:	02513423          	sd	t0,40(sp)
    800000ac:	0000b297          	auipc	t0,0xb
    800000b0:	02613823          	sd	t1,48(sp)
    800000b4:	00359313          	slli	t1,a1,0x3
    800000b8:	02713c23          	sd	t2,56(sp)
    800000bc:	00628333          	add	t1,t0,t1
    800000c0:	04813023          	sd	s0,64(sp)
    800000c4:	35433303          	ld	t1,852(t1)
    800000c8:	04913423          	sd	s1,72(sp)
    800000cc:	00010513          	mv	a0,sp
    800000d0:	06c13023          	sd	a2,96(sp)
    800000d4:	34102673          	csrr	a2,mepc
    800000d8:	06d13423          	sd	a3,104(sp)
    800000dc:	340012f3          	csrrw	t0,mscratch,zero
    800000e0:	06e13823          	sd	a4,112(sp)
    800000e4:	06f13c23          	sd	a5,120(sp)
    800000e8:	09013023          	sd	a6,128(sp)
    800000ec:	09113423          	sd	a7,136(sp)
    800000f0:	09213823          	sd	s2,144(sp)
    800000f4:	09313c23          	sd	s3,152(sp)
    800000f8:	0b413023          	sd	s4,160(sp)
    800000fc:	0b513423          	sd	s5,168(sp)
    80000100:	0b613823          	sd	s6,176(sp)
    80000104:	0b713c23          	sd	s7,184(sp)
    80000108:	0d813023          	sd	s8,192(sp)
    8000010c:	0d913423          	sd	s9,200(sp)
    80000110:	0da13823          	sd	s10,208(sp)
    80000114:	0db13c23          	sd	s11,216(sp)
    80000118:	0fc13023          	sd	t3,224(sp)
    8000011c:	0fd13423          	sd	t4,232(sp)
    80000120:	0fe13823          	sd	t5,240(sp)
    80000124:	0ff13c23          	sd	t6,248(sp)
    80000128:	00513823          	sd	t0,16(sp)
    8000012c:	00013023          	sd	zero,0(sp)
    80000130:	000300e7          	jalr	t1

0000000080000134 <restore_mscratch>:
    80000134:	34011073          	csrw	mscratch,sp

0000000080000138 <restore_regs>:
    80000138:	00813083          	ld	ra,8(sp)
    8000013c:	01813183          	ld	gp,24(sp)
    80000140:	02013203          	ld	tp,32(sp)
    80000144:	02813283          	ld	t0,40(sp)
    80000148:	03013303          	ld	t1,48(sp)
    8000014c:	03813383          	ld	t2,56(sp)
    80000150:	04013403          	ld	s0,64(sp)
    80000154:	04813483          	ld	s1,72(sp)
    80000158:	05013503          	ld	a0,80(sp)
    8000015c:	05813583          	ld	a1,88(sp)
    80000160:	06013603          	ld	a2,96(sp)
    80000164:	06813683          	ld	a3,104(sp)
    80000168:	07013703          	ld	a4,112(sp)
    8000016c:	07813783          	ld	a5,120(sp)
    80000170:	08013803          	ld	a6,128(sp)
    80000174:	08813883          	ld	a7,136(sp)
    80000178:	09013903          	ld	s2,144(sp)
    8000017c:	09813983          	ld	s3,152(sp)
    80000180:	0a013a03          	ld	s4,160(sp)
    80000184:	0a813a83          	ld	s5,168(sp)
    80000188:	0b013b03          	ld	s6,176(sp)
    8000018c:	0b813b83          	ld	s7,184(sp)
    80000190:	0c013c03          	ld	s8,192(sp)
    80000194:	0c813c83          	ld	s9,200(sp)
    80000198:	0d013d03          	ld	s10,208(sp)
    8000019c:	0d813d83          	ld	s11,216(sp)
    800001a0:	0e013e03          	ld	t3,224(sp)
    800001a4:	0e813e83          	ld	t4,232(sp)
    800001a8:	0f013f03          	ld	t5,240(sp)
    800001ac:	0f813f83          	ld	t6,248(sp)
    800001b0:	01013103          	ld	sp,16(sp)
    800001b4:	30200073          	mret
    800001b8:	34002173          	csrr	sp,mscratch
    800001bc:	f0010113          	addi	sp,sp,-256
    800001c0:	04a13823          	sd	a0,80(sp)
    800001c4:	04b13c23          	sd	a1,88(sp)
    800001c8:	00d00593          	li	a1,13
    800001cc:	ed1ff06f          	j	8000009c <trap_vector+0x98>
    800001d0:	00000593          	li	a1,0
    800001d4:	ec9ff06f          	j	8000009c <trap_vector+0x98>

00000000800001d8 <__redirect_trap>:
    800001d8:	000012b7          	lui	t0,0x1
    800001dc:	00510133          	add	sp,sp,t0
    800001e0:	405002b3          	neg	t0,t0
    800001e4:	00517133          	and	sp,sp,t0
    800001e8:	ec010113          	addi	sp,sp,-320
    800001ec:	f49ff06f          	j	80000134 <restore_mscratch>

00000000800001f0 <__trap_from_machine_mode>:
    800001f0:	580020ef          	jal	ra,80002770 <trap_from_machine_mode>
    800001f4:	f45ff06f          	j	80000138 <restore_regs>

00000000800001f8 <do_reset>:
    800001f8:	00000093          	li	ra,0
    800001fc:	00000113          	li	sp,0
    80000200:	00000193          	li	gp,0
    80000204:	00000213          	li	tp,0
    80000208:	00000293          	li	t0,0
    8000020c:	00000313          	li	t1,0
    80000210:	00000393          	li	t2,0
    80000214:	00000413          	li	s0,0
    80000218:	00000493          	li	s1,0
    8000021c:	00000613          	li	a2,0
    80000220:	00000693          	li	a3,0
    80000224:	00000713          	li	a4,0
    80000228:	00000793          	li	a5,0
    8000022c:	00000813          	li	a6,0
    80000230:	00000893          	li	a7,0
    80000234:	00000913          	li	s2,0
    80000238:	00000993          	li	s3,0
    8000023c:	00000a13          	li	s4,0
    80000240:	00000a93          	li	s5,0
    80000244:	00000b13          	li	s6,0
    80000248:	00000b93          	li	s7,0
    8000024c:	00000c13          	li	s8,0
    80000250:	00000c93          	li	s9,0
    80000254:	00000d13          	li	s10,0
    80000258:	00000d93          	li	s11,0
    8000025c:	00000e13          	li	t3,0
    80000260:	00000e93          	li	t4,0
    80000264:	00000f13          	li	t5,0
    80000268:	00000f93          	li	t6,0
    8000026c:	34001073          	csrw	mscratch,zero
    80000270:	00000297          	auipc	t0,0x0
    80000274:	d9428293          	addi	t0,t0,-620 # 80000004 <trap_vector>
    80000278:	30529073          	csrw	mtvec,t0
    8000027c:	30502373          	csrr	t1,mtvec
    80000280:	00629063          	bne	t0,t1,80000280 <do_reset+0x88>
    80000284:	0000e117          	auipc	sp,0xe
    80000288:	c3c10113          	addi	sp,sp,-964 # 8000dec0 <stacks+0xec0>
    8000028c:	f14026f3          	csrr	a3,mhartid
    80000290:	00c69613          	slli	a2,a3,0xc
    80000294:	00c10133          	add	sp,sp,a2
    80000298:	00069463          	bnez	a3,800002a0 <do_reset+0xa8>
    8000029c:	7f00206f          	j	80002a8c <init_first_hart>
    800002a0:	00800613          	li	a2,8
    800002a4:	30461073          	csrw	mie,a2
    800002a8:	10500073          	wfi
    800002ac:	00015717          	auipc	a4,0x15
    800002b0:	dac70713          	addi	a4,a4,-596 # 80015058 <disabled_hart_mask>
    800002b4:	00073703          	ld	a4,0(a4)
    800002b8:	00d75733          	srl	a4,a4,a3
    800002bc:	00177713          	andi	a4,a4,1
    800002c0:	fe0714e3          	bnez	a4,800002a8 <do_reset+0xb0>
    800002c4:	34402673          	csrr	a2,mip
    800002c8:	00867613          	andi	a2,a2,8
    800002cc:	fc060ee3          	beqz	a2,800002a8 <do_reset+0xb0>
    800002d0:	0ff0000f          	fence
    800002d4:	00800613          	li	a2,8
    800002d8:	00c6f463          	bgeu	a3,a2,800002e0 <do_reset+0xe8>
    800002dc:	0950206f          	j	80002b70 <init_other_hart>
    800002e0:	10500073          	wfi
    800002e4:	fc5ff06f          	j	800002a8 <do_reset+0xb0>

00000000800002e8 <rest_of_boot_loader>:
    800002e8:	81010113          	addi	sp,sp,-2032
    800002ec:	7e813023          	sd	s0,2016(sp)
    800002f0:	7d313423          	sd	s3,1992(sp)
    800002f4:	7e113423          	sd	ra,2024(sp)
    800002f8:	7c913c23          	sd	s1,2008(sp)
    800002fc:	7d213823          	sd	s2,2000(sp)
    80000300:	7d413023          	sd	s4,1984(sp)
    80000304:	7b513c23          	sd	s5,1976(sp)
    80000308:	7b613823          	sd	s6,1968(sp)
    8000030c:	7b713423          	sd	s7,1960(sp)
    80000310:	800007b7          	lui	a5,0x80000
    80000314:	9e010113          	addi	sp,sp,-1568
    80000318:	5c010413          	addi	s0,sp,1472
    8000031c:	fff7c793          	not	a5,a5
    80000320:	89aa                	mv	s3,a0
    80000322:	85a2                	mv	a1,s0
    80000324:	0087e763          	bltu	a5,s0,80000332 <rest_of_boot_loader+0x4a>
    80000328:	00015597          	auipc	a1,0x15
    8000032c:	da85b583          	ld	a1,-600(a1) # 800150d0 <first_free_paddr>
    80000330:	95a2                	add	a1,a1,s0
    80000332:	6485                	lui	s1,0x1
    80000334:	4881                	li	a7,0
    80000336:	4801                	li	a6,0
    80000338:	4781                	li	a5,0
    8000033a:	4701                	li	a4,0
    8000033c:	4681                	li	a3,0
    8000033e:	80048613          	addi	a2,s1,-2048 # 800 <MEM_START-0x7ffff800>
    80000342:	7db00513          	li	a0,2011
    80000346:	6c2000ef          	jal	ra,80000a08 <frontend_syscall>
    8000034a:	26051563          	bnez	a0,800005b4 <rest_of_boot_loader+0x2cc>
    8000034e:	5c013683          	ld	a3,1472(sp)
    80000352:	4785                	li	a5,1
    80000354:	24d7f863          	bgeu	a5,a3,800005a4 <rest_of_boot_loader+0x2bc>
    80000358:	5d010713          	addi	a4,sp,1488
    8000035c:	02d00e13          	li	t3,45
    80000360:	07000313          	li	t1,112
    80000364:	07300893          	li	a7,115
    80000368:	00015817          	auipc	a6,0x15
    8000036c:	cf880813          	addi	a6,a6,-776 # 80015060 <current>
    80000370:	4505                	li	a0,1
    80000372:	a809                	j	80000384 <rest_of_boot_loader+0x9c>
    80000374:	0000b617          	auipc	a2,0xb
    80000378:	12062823          	sw	zero,304(a2) # 8000b4a4 <demand_paging>
    8000037c:	0785                	addi	a5,a5,1
    8000037e:	0721                	addi	a4,a4,8
    80000380:	02f68363          	beq	a3,a5,800003a6 <rest_of_boot_loader+0xbe>
    80000384:	6310                	ld	a2,0(a4)
    80000386:	00064583          	lbu	a1,0(a2)
    8000038a:	03c59463          	bne	a1,t3,800003b2 <rest_of_boot_loader+0xca>
    8000038e:	00164583          	lbu	a1,1(a2)
    80000392:	fe6581e3          	beq	a1,t1,80000374 <rest_of_boot_loader+0x8c>
    80000396:	21159963          	bne	a1,a7,800005a8 <rest_of_boot_loader+0x2c0>
    8000039a:	06a83023          	sd	a0,96(a6)
    8000039e:	0785                	addi	a5,a5,1
    800003a0:	0721                	addi	a4,a4,8
    800003a2:	fef691e3          	bne	a3,a5,80000384 <rest_of_boot_loader+0x9c>
    800003a6:	00009517          	auipc	a0,0x9
    800003aa:	e3a50513          	addi	a0,a0,-454 # 800091e0 <softfloat_countLeadingZeros8+0x198>
    800003ae:	255000ef          	jal	ra,80000e02 <do_panic>
    800003b2:	02d7f163          	bgeu	a5,a3,800003d4 <rest_of_boot_loader+0xec>
    800003b6:	00369613          	slli	a2,a3,0x3
    800003ba:	00379513          	slli	a0,a5,0x3
    800003be:	9622                	add	a2,a2,s0
    800003c0:	8e09                	sub	a2,a2,a0
    800003c2:	8722                	mv	a4,s0
    800003c4:	00a705b3          	add	a1,a4,a0
    800003c8:	658c                	ld	a1,8(a1)
    800003ca:	0721                	addi	a4,a4,8
    800003cc:	feb73c23          	sd	a1,-8(a4)
    800003d0:	fee61ae3          	bne	a2,a4,800003c4 <rest_of_boot_loader+0xdc>
    800003d4:	40f68a33          	sub	s4,a3,a5
    800003d8:	fcf687e3          	beq	a3,a5,800003a6 <rest_of_boot_loader+0xbe>
    800003dc:	6705                	lui	a4,0x1
    800003de:	0814                	addi	a3,sp,16
    800003e0:	77fd                	lui	a5,0xfffff
    800003e2:	db070713          	addi	a4,a4,-592 # db0 <MEM_START-0x7ffff250>
    800003e6:	9736                	add	a4,a4,a3
    800003e8:	5c013503          	ld	a0,1472(sp)
    800003ec:	40078793          	addi	a5,a5,1024 # fffffffffffff400 <_end+0xffffffff7ffe9400>
    800003f0:	00015917          	auipc	s2,0x15
    800003f4:	c7090913          	addi	s2,s2,-912 # 80015060 <current>
    800003f8:	97ba                	add	a5,a5,a4
    800003fa:	85ca                	mv	a1,s2
    800003fc:	00f93823          	sd	a5,16(s2)
    80000400:	40000793          	li	a5,1024
    80000404:	00f93c23          	sd	a5,24(s2)
    80000408:	6d8000ef          	jal	ra,80000ae0 <load_elf>
    8000040c:	01893603          	ld	a2,24(s2)
    80000410:	05093483          	ld	s1,80(s2)
    80000414:	01093583          	ld	a1,16(s2)
    80000418:	003a1a93          	slli	s5,s4,0x3
    8000041c:	8c91                	sub	s1,s1,a2
    8000041e:	8526                	mv	a0,s1
    80000420:	5e7070ef          	jal	ra,80008206 <memcpy>
    80000424:	01540bb3          	add	s7,s0,s5
    80000428:	00993823          	sd	s1,16(s2)
    8000042c:	00043b03          	ld	s6,0(s0)
    80000430:	0421                	addi	s0,s0,8
    80000432:	855a                	mv	a0,s6
    80000434:	669070ef          	jal	ra,8000829c <strlen>
    80000438:	00150613          	addi	a2,a0,1
    8000043c:	8c91                	sub	s1,s1,a2
    8000043e:	85da                	mv	a1,s6
    80000440:	8526                	mv	a0,s1
    80000442:	5c5070ef          	jal	ra,80008206 <memcpy>
    80000446:	fe943c23          	sd	s1,-8(s0)
    8000044a:	fe8b91e3          	bne	s7,s0,8000042c <rest_of_boot_loader+0x144>
    8000044e:	6505                	lui	a0,0x1
    80000450:	db050513          	addi	a0,a0,-592 # db0 <MEM_START-0x7ffff250>
    80000454:	01010813          	addi	a6,sp,16
    80000458:	9542                	add	a0,a0,a6
    8000045a:	75fd                	lui	a1,0xfffff
    8000045c:	95aa                	add	a1,a1,a0
    8000045e:	e42e                	sd	a1,8(sp)
    80000460:	6522                	ld	a0,8(sp)
    80000462:	01093783          	ld	a5,16(s2)
    80000466:	02893603          	ld	a2,40(s2)
    8000046a:	00492683          	lw	a3,4(s2)
    8000046e:	00092703          	lw	a4,0(s2)
    80000472:	28f53823          	sd	a5,656(a0)
    80000476:	4799                	li	a5,6
    80000478:	28f53c23          	sd	a5,664(a0)
    8000047c:	6785                	lui	a5,0x1
    8000047e:	98e1                	andi	s1,s1,-8
    80000480:	2af53023          	sd	a5,672(a0)
    80000484:	098a8413          	addi	s0,s5,152
    80000488:	47dd                	li	a5,23
    8000048a:	26c53023          	sd	a2,608(a0)
    8000048e:	26d53823          	sd	a3,624(a0)
    80000492:	28e53023          	sd	a4,640(a0)
    80000496:	4691                	li	a3,4
    80000498:	470d                	li	a4,3
    8000049a:	2af53423          	sd	a5,680(a0)
    8000049e:	40848433          	sub	s0,s1,s0
    800004a2:	47e5                	li	a5,25
    800004a4:	45a5                	li	a1,9
    800004a6:	4615                	li	a2,5
    800004a8:	9841                	andi	s0,s0,-16
    800004aa:	26d53c23          	sd	a3,632(a0)
    800004ae:	28e53423          	sd	a4,648(a0)
    800004b2:	2af53c23          	sd	a5,696(a0)
    800004b6:	24b53c23          	sd	a1,600(a0)
    800004ba:	26c53423          	sd	a2,616(a0)
    800004be:	2a053823          	sd	zero,688(a0)
    800004c2:	2c953023          	sd	s1,704(a0)
    800004c6:	2c053423          	sd	zero,712(a0)
    800004ca:	2c053823          	sd	zero,720(a0)
    800004ce:	01443023          	sd	s4,0(s0)
    800004d2:	00840693          	addi	a3,s0,8
    800004d6:	4701                	li	a4,0
    800004d8:	4781                	li	a5,0
    800004da:	6605                	lui	a2,0x1
    800004dc:	db060613          	addi	a2,a2,-592 # db0 <MEM_START-0x7ffff250>
    800004e0:	080c                	addi	a1,sp,16
    800004e2:	962e                	add	a2,a2,a1
    800004e4:	078e                	slli	a5,a5,0x3
    800004e6:	97b2                	add	a5,a5,a2
    800004e8:	8007b603          	ld	a2,-2048(a5) # 800 <MEM_START-0x7ffff800>
    800004ec:	2705                	addiw	a4,a4,1
    800004ee:	02071793          	slli	a5,a4,0x20
    800004f2:	e290                	sd	a2,0(a3)
    800004f4:	9381                	srli	a5,a5,0x20
    800004f6:	8636                	mv	a2,a3
    800004f8:	06a1                	addi	a3,a3,8
    800004fa:	ff47e0e3          	bltu	a5,s4,800004da <rest_of_boot_loader+0x1f2>
    800004fe:	0006b023          	sd	zero,0(a3)
    80000502:	6685                	lui	a3,0x1
    80000504:	77fd                	lui	a5,0xfffff
    80000506:	db068693          	addi	a3,a3,-592 # db0 <MEM_START-0x7ffff250>
    8000050a:	25878793          	addi	a5,a5,600 # fffffffffffff258 <_end+0xffffffff7ffe9258>
    8000050e:	96ae                	add	a3,a3,a1
    80000510:	00063823          	sd	zero,16(a2)
    80000514:	01860713          	addi	a4,a2,24
    80000518:	97b6                	add	a5,a5,a3
    8000051a:	09860613          	addi	a2,a2,152
    8000051e:	6394                	ld	a3,0(a5)
    80000520:	07c1                	addi	a5,a5,16
    80000522:	0741                	addi	a4,a4,16
    80000524:	fed73823          	sd	a3,-16(a4)
    80000528:	ff87b683          	ld	a3,-8(a5)
    8000052c:	fed73c23          	sd	a3,-8(a4)
    80000530:	fec717e3          	bne	a4,a2,8000051e <rest_of_boot_loader+0x236>
    80000534:	06093783          	ld	a5,96(s2)
    80000538:	cf89                	beqz	a5,80000552 <rest_of_boot_loader+0x26a>
    8000053a:	c01027f3          	rdtime	a5
    8000053e:	04f93c23          	sd	a5,88(s2)
    80000542:	c00027f3          	rdcycle	a5
    80000546:	06f93023          	sd	a5,96(s2)
    8000054a:	c02027f3          	rdinstret	a5
    8000054e:	06f93423          	sd	a5,104(s2)
    80000552:	6a05                	lui	s4,0x1
    80000554:	0814                	addi	a3,sp,16
    80000556:	74fd                	lui	s1,0xfffff
    80000558:	db0a0793          	addi	a5,s4,-592 # db0 <MEM_START-0x7ffff250>
    8000055c:	97b6                	add	a5,a5,a3
    8000055e:	2d848713          	addi	a4,s1,728 # fffffffffffff2d8 <_end+0xffffffff7ffe92d8>
    80000562:	973e                	add	a4,a4,a5
    80000564:	12800613          	li	a2,296
    80000568:	4581                	li	a1,0
    8000056a:	853a                	mv	a0,a4
    8000056c:	02893903          	ld	s2,40(s2)
    80000570:	4e7070ef          	jal	ra,80008256 <memset>
    80000574:	100027f3          	csrr	a5,sstatus
    80000578:	db0a0693          	addi	a3,s4,-592
    8000057c:	0810                	addi	a2,sp,16
    8000057e:	96b2                	add	a3,a3,a2
    80000580:	edd7f793          	andi	a5,a5,-291
    80000584:	96a6                	add	a3,a3,s1
    80000586:	0207e793          	ori	a5,a5,32
    8000058a:	e436                	sd	a3,8(sp)
    8000058c:	3cf6bc23          	sd	a5,984(a3)
    80000590:	2e86b423          	sd	s0,744(a3)
    80000594:	3f26b023          	sd	s2,992(a3)
    80000598:	0000100f          	fence.i
    8000059c:	14099073          	csrw	sscratch,s3
    800005a0:	31c010ef          	jal	ra,800018bc <start_user>
    800005a4:	4785                	li	a5,1
    800005a6:	b53d                	j	800003d4 <rest_of_boot_loader+0xec>
    800005a8:	00009517          	auipc	a0,0x9
    800005ac:	c1850513          	addi	a0,a0,-1000 # 800091c0 <softfloat_countLeadingZeros8+0x178>
    800005b0:	053000ef          	jal	ra,80000e02 <do_panic>
    800005b4:	80048593          	addi	a1,s1,-2048
    800005b8:	00009517          	auipc	a0,0x9
    800005bc:	be850513          	addi	a0,a0,-1048 # 800091a0 <softfloat_countLeadingZeros8+0x158>
    800005c0:	043000ef          	jal	ra,80000e02 <do_panic>

00000000800005c4 <boot_loader>:
    800005c4:	1141                	addi	sp,sp,-16
    800005c6:	e406                	sd	ra,8(sp)
    800005c8:	00001797          	auipc	a5,0x1
    800005cc:	27478793          	addi	a5,a5,628 # 8000183c <trap_entry>
    800005d0:	10579073          	csrw	stvec,a5
    800005d4:	14005073          	csrwi	sscratch,0
    800005d8:	10405073          	csrwi	sie,0
    800005dc:	000467b7          	lui	a5,0x46
    800005e0:	1007a7f3          	csrrs	a5,sstatus,a5
    800005e4:	0fe000ef          	jal	ra,800006e2 <file_init>
    800005e8:	140010ef          	jal	ra,80001728 <pk_vm_init>
    800005ec:	85aa                	mv	a1,a0
    800005ee:	4601                	li	a2,0
    800005f0:	00000517          	auipc	a0,0x0
    800005f4:	cf850513          	addi	a0,a0,-776 # 800002e8 <rest_of_boot_loader>
    800005f8:	5b2020ef          	jal	ra,80002baa <enter_supervisor_mode>

00000000800005fc <boot_other_hart>:
    800005fc:	10500073          	wfi
    80000600:	bff5                	j	800005fc <boot_other_hart>

0000000080000602 <file_get_free>:
    80000602:	0000b517          	auipc	a0,0xb
    80000606:	9fe50513          	addi	a0,a0,-1538 # 8000b000 <files>
    8000060a:	4689                	li	a3,2
    8000060c:	0000b717          	auipc	a4,0xb
    80000610:	df470713          	addi	a4,a4,-524 # 8000b400 <trap_table>
    80000614:	a021                	j	8000061c <file_get_free+0x1a>
    80000616:	0521                	addi	a0,a0,8
    80000618:	02e50263          	beq	a0,a4,8000063c <file_get_free+0x3a>
    8000061c:	415c                	lw	a5,4(a0)
    8000061e:	2781                	sext.w	a5,a5
    80000620:	fbfd                	bnez	a5,80000616 <file_get_free+0x14>
    80000622:	00450613          	addi	a2,a0,4
    80000626:	0f50000f          	fence	iorw,ow
    8000062a:	140627af          	lr.w.aq	a5,(a2)
    8000062e:	e781                	bnez	a5,80000636 <file_get_free+0x34>
    80000630:	1cd625af          	sc.w.aq	a1,a3,(a2)
    80000634:	f9fd                	bnez	a1,8000062a <file_get_free+0x28>
    80000636:	2781                	sext.w	a5,a5
    80000638:	fff9                	bnez	a5,80000616 <file_get_free+0x14>
    8000063a:	8082                	ret
    8000063c:	4501                	li	a0,0
    8000063e:	8082                	ret

0000000080000640 <file_incref>:
    80000640:	4705                	li	a4,1
    80000642:	00450693          	addi	a3,a0,4
    80000646:	0f50000f          	fence	iorw,ow
    8000064a:	04e6a7af          	amoadd.w.aq	a5,a4,(a3)
    8000064e:	2781                	sext.w	a5,a5
    80000650:	c391                	beqz	a5,80000654 <file_incref+0x14>
    80000652:	8082                	ret
    80000654:	1141                	addi	sp,sp,-16
    80000656:	00009517          	auipc	a0,0x9
    8000065a:	baa50513          	addi	a0,a0,-1110 # 80009200 <softfloat_countLeadingZeros8+0x1b8>
    8000065e:	e406                	sd	ra,8(sp)
    80000660:	7c6000ef          	jal	ra,80000e26 <kassert_fail>

0000000080000664 <file_decref>:
    80000664:	577d                	li	a4,-1
    80000666:	00450693          	addi	a3,a0,4
    8000066a:	0f50000f          	fence	iorw,ow
    8000066e:	04e6a7af          	amoadd.w.aq	a5,a4,(a3)
    80000672:	2781                	sext.w	a5,a5
    80000674:	4709                	li	a4,2
    80000676:	00e78363          	beq	a5,a4,8000067c <file_decref+0x18>
    8000067a:	8082                	ret
    8000067c:	410c                	lw	a1,0(a0)
    8000067e:	0ff0000f          	fence
    80000682:	4881                	li	a7,0
    80000684:	00052223          	sw	zero,4(a0)
    80000688:	4801                	li	a6,0
    8000068a:	4781                	li	a5,0
    8000068c:	4701                	li	a4,0
    8000068e:	4681                	li	a3,0
    80000690:	4601                	li	a2,0
    80000692:	03900513          	li	a0,57
    80000696:	ae8d                	j	80000a08 <frontend_syscall>

0000000080000698 <file_dup>:
    80000698:	1141                	addi	sp,sp,-16
    8000069a:	e022                	sd	s0,0(sp)
    8000069c:	e406                	sd	ra,8(sp)
    8000069e:	0000c797          	auipc	a5,0xc
    800006a2:	96278793          	addi	a5,a5,-1694 # 8000c000 <fds>
    800006a6:	4401                	li	s0,0
    800006a8:	08000693          	li	a3,128
    800006ac:	a029                	j	800006b6 <file_dup+0x1e>
    800006ae:	2405                	addiw	s0,s0,1
    800006b0:	07a1                	addi	a5,a5,8
    800006b2:	02d40263          	beq	s0,a3,800006d6 <file_dup+0x3e>
    800006b6:	0f50000f          	fence	iorw,ow
    800006ba:	1407b72f          	lr.d.aq	a4,(a5)
    800006be:	e701                	bnez	a4,800006c6 <file_dup+0x2e>
    800006c0:	1ca7b62f          	sc.d.aq	a2,a0,(a5)
    800006c4:	fa7d                	bnez	a2,800006ba <file_dup+0x22>
    800006c6:	f765                	bnez	a4,800006ae <file_dup+0x16>
    800006c8:	f79ff0ef          	jal	ra,80000640 <file_incref>
    800006cc:	60a2                	ld	ra,8(sp)
    800006ce:	8522                	mv	a0,s0
    800006d0:	6402                	ld	s0,0(sp)
    800006d2:	0141                	addi	sp,sp,16
    800006d4:	8082                	ret
    800006d6:	547d                	li	s0,-1
    800006d8:	60a2                	ld	ra,8(sp)
    800006da:	8522                	mv	a0,s0
    800006dc:	6402                	ld	s0,0(sp)
    800006de:	0141                	addi	sp,sp,16
    800006e0:	8082                	ret

00000000800006e2 <file_init>:
    800006e2:	1101                	addi	sp,sp,-32
    800006e4:	e822                	sd	s0,16(sp)
    800006e6:	e426                	sd	s1,8(sp)
    800006e8:	ec06                	sd	ra,24(sp)
    800006ea:	4401                	li	s0,0
    800006ec:	448d                	li	s1,3
    800006ee:	f15ff0ef          	jal	ra,80000602 <file_get_free>
    800006f2:	c100                	sw	s0,0(a0)
    800006f4:	2405                	addiw	s0,s0,1
    800006f6:	fa3ff0ef          	jal	ra,80000698 <file_dup>
    800006fa:	fe941ae3          	bne	s0,s1,800006ee <file_init+0xc>
    800006fe:	60e2                	ld	ra,24(sp)
    80000700:	6442                	ld	s0,16(sp)
    80000702:	64a2                	ld	s1,8(sp)
    80000704:	6105                	addi	sp,sp,32
    80000706:	8082                	ret

0000000080000708 <file_get>:
    80000708:	07f00793          	li	a5,127
    8000070c:	02a7ee63          	bltu	a5,a0,80000748 <file_get+0x40>
    80000710:	050e                	slli	a0,a0,0x3
    80000712:	0000c797          	auipc	a5,0xc
    80000716:	8ee78793          	addi	a5,a5,-1810 # 8000c000 <fds>
    8000071a:	953e                	add	a0,a0,a5
    8000071c:	6108                	ld	a0,0(a0)
    8000071e:	e105                	bnez	a0,8000073e <file_get+0x36>
    80000720:	a025                	j	80000748 <file_get+0x40>
    80000722:	00450613          	addi	a2,a0,4
    80000726:	0f50000f          	fence	iorw,ow
    8000072a:	1406272f          	lr.w.aq	a4,(a2)
    8000072e:	00f71563          	bne	a4,a5,80000738 <file_get+0x30>
    80000732:	1cd625af          	sc.w.aq	a1,a3,(a2)
    80000736:	f9f5                	bnez	a1,8000072a <file_get+0x22>
    80000738:	2701                	sext.w	a4,a4
    8000073a:	00e78963          	beq	a5,a4,8000074c <file_get+0x44>
    8000073e:	415c                	lw	a5,4(a0)
    80000740:	2781                	sext.w	a5,a5
    80000742:	0017869b          	addiw	a3,a5,1
    80000746:	fff1                	bnez	a5,80000722 <file_get+0x1a>
    80000748:	4501                	li	a0,0
    8000074a:	8082                	ret
    8000074c:	8082                	ret

000000008000074e <file_openat>:
    8000074e:	7179                	addi	sp,sp,-48
    80000750:	f022                	sd	s0,32(sp)
    80000752:	e84a                	sd	s2,16(sp)
    80000754:	e44e                	sd	s3,8(sp)
    80000756:	e052                	sd	s4,0(sp)
    80000758:	f406                	sd	ra,40(sp)
    8000075a:	ec26                	sd	s1,24(sp)
    8000075c:	892a                	mv	s2,a0
    8000075e:	842e                	mv	s0,a1
    80000760:	8a32                	mv	s4,a2
    80000762:	89b6                	mv	s3,a3
    80000764:	e9fff0ef          	jal	ra,80000602 <file_get_free>
    80000768:	c125                	beqz	a0,800007c8 <file_openat+0x7a>
    8000076a:	84aa                	mv	s1,a0
    8000076c:	8522                	mv	a0,s0
    8000076e:	32f070ef          	jal	ra,8000829c <strlen>
    80000772:	800007b7          	lui	a5,0x80000
    80000776:	fff7c793          	not	a5,a5
    8000077a:	8622                	mv	a2,s0
    8000077c:	00150693          	addi	a3,a0,1
    80000780:	0287f863          	bgeu	a5,s0,800007b0 <file_openat+0x62>
    80000784:	4881                	li	a7,0
    80000786:	4801                	li	a6,0
    80000788:	87ce                	mv	a5,s3
    8000078a:	8752                	mv	a4,s4
    8000078c:	85ca                	mv	a1,s2
    8000078e:	03800513          	li	a0,56
    80000792:	276000ef          	jal	ra,80000a08 <frontend_syscall>
    80000796:	842a                	mv	s0,a0
    80000798:	02054363          	bltz	a0,800007be <file_openat+0x70>
    8000079c:	c088                	sw	a0,0(s1)
    8000079e:	70a2                	ld	ra,40(sp)
    800007a0:	7402                	ld	s0,32(sp)
    800007a2:	6942                	ld	s2,16(sp)
    800007a4:	69a2                	ld	s3,8(sp)
    800007a6:	6a02                	ld	s4,0(sp)
    800007a8:	8526                	mv	a0,s1
    800007aa:	64e2                	ld	s1,24(sp)
    800007ac:	6145                	addi	sp,sp,48
    800007ae:	8082                	ret
    800007b0:	00015797          	auipc	a5,0x15
    800007b4:	9207b783          	ld	a5,-1760(a5) # 800150d0 <first_free_paddr>
    800007b8:	00f40633          	add	a2,s0,a5
    800007bc:	b7e1                	j	80000784 <file_openat+0x36>
    800007be:	8526                	mv	a0,s1
    800007c0:	ea5ff0ef          	jal	ra,80000664 <file_decref>
    800007c4:	84a2                	mv	s1,s0
    800007c6:	bfe1                	j	8000079e <file_openat+0x50>
    800007c8:	54d1                	li	s1,-12
    800007ca:	bfd1                	j	8000079e <file_openat+0x50>

00000000800007cc <file_open>:
    800007cc:	86b2                	mv	a3,a2
    800007ce:	862e                	mv	a2,a1
    800007d0:	85aa                	mv	a1,a0
    800007d2:	f9c00513          	li	a0,-100
    800007d6:	bfa5                	j	8000074e <file_openat>

00000000800007d8 <fd_close>:
    800007d8:	1101                	addi	sp,sp,-32
    800007da:	e426                	sd	s1,8(sp)
    800007dc:	ec06                	sd	ra,24(sp)
    800007de:	e822                	sd	s0,16(sp)
    800007e0:	e04a                	sd	s2,0(sp)
    800007e2:	84aa                	mv	s1,a0
    800007e4:	f25ff0ef          	jal	ra,80000708 <file_get>
    800007e8:	cd1d                	beqz	a0,80000826 <fd_close+0x4e>
    800007ea:	0000c797          	auipc	a5,0xc
    800007ee:	81678793          	addi	a5,a5,-2026 # 8000c000 <fds>
    800007f2:	048e                	slli	s1,s1,0x3
    800007f4:	842a                	mv	s0,a0
    800007f6:	94be                	add	s1,s1,a5
    800007f8:	0f50000f          	fence	iorw,ow
    800007fc:	1404b92f          	lr.d.aq	s2,(s1)
    80000800:	00a91563          	bne	s2,a0,8000080a <fd_close+0x32>
    80000804:	1c04b7af          	sc.d.aq	a5,zero,(s1)
    80000808:	fbf5                	bnez	a5,800007fc <fd_close+0x24>
    8000080a:	e5bff0ef          	jal	ra,80000664 <file_decref>
    8000080e:	01241c63          	bne	s0,s2,80000826 <fd_close+0x4e>
    80000812:	8522                	mv	a0,s0
    80000814:	e51ff0ef          	jal	ra,80000664 <file_decref>
    80000818:	4501                	li	a0,0
    8000081a:	60e2                	ld	ra,24(sp)
    8000081c:	6442                	ld	s0,16(sp)
    8000081e:	64a2                	ld	s1,8(sp)
    80000820:	6902                	ld	s2,0(sp)
    80000822:	6105                	addi	sp,sp,32
    80000824:	8082                	ret
    80000826:	557d                	li	a0,-1
    80000828:	bfcd                	j	8000081a <fd_close+0x42>

000000008000082a <file_read>:
    8000082a:	1101                	addi	sp,sp,-32
    8000082c:	e822                	sd	s0,16(sp)
    8000082e:	e426                	sd	s1,8(sp)
    80000830:	842e                	mv	s0,a1
    80000832:	84b2                	mv	s1,a2
    80000834:	e04a                	sd	s2,0(sp)
    80000836:	4609                	li	a2,2
    80000838:	892a                	mv	s2,a0
    8000083a:	85a6                	mv	a1,s1
    8000083c:	8522                	mv	a0,s0
    8000083e:	ec06                	sd	ra,24(sp)
    80000840:	6c3000ef          	jal	ra,80001702 <populate_mapping>
    80000844:	800007b7          	lui	a5,0x80000
    80000848:	fff7c793          	not	a5,a5
    8000084c:	00092583          	lw	a1,0(s2)
    80000850:	8622                	mv	a2,s0
    80000852:	0087e863          	bltu	a5,s0,80000862 <file_read+0x38>
    80000856:	00015797          	auipc	a5,0x15
    8000085a:	87a7b783          	ld	a5,-1926(a5) # 800150d0 <first_free_paddr>
    8000085e:	00f40633          	add	a2,s0,a5
    80000862:	6442                	ld	s0,16(sp)
    80000864:	60e2                	ld	ra,24(sp)
    80000866:	6902                	ld	s2,0(sp)
    80000868:	86a6                	mv	a3,s1
    8000086a:	64a2                	ld	s1,8(sp)
    8000086c:	4881                	li	a7,0
    8000086e:	4801                	li	a6,0
    80000870:	4781                	li	a5,0
    80000872:	4701                	li	a4,0
    80000874:	03f00513          	li	a0,63
    80000878:	6105                	addi	sp,sp,32
    8000087a:	a279                	j	80000a08 <frontend_syscall>

000000008000087c <file_pread>:
    8000087c:	7179                	addi	sp,sp,-48
    8000087e:	f022                	sd	s0,32(sp)
    80000880:	ec26                	sd	s1,24(sp)
    80000882:	842e                	mv	s0,a1
    80000884:	84b2                	mv	s1,a2
    80000886:	e44e                	sd	s3,8(sp)
    80000888:	4609                	li	a2,2
    8000088a:	89aa                	mv	s3,a0
    8000088c:	85a6                	mv	a1,s1
    8000088e:	8522                	mv	a0,s0
    80000890:	e84a                	sd	s2,16(sp)
    80000892:	f406                	sd	ra,40(sp)
    80000894:	8936                	mv	s2,a3
    80000896:	66d000ef          	jal	ra,80001702 <populate_mapping>
    8000089a:	800007b7          	lui	a5,0x80000
    8000089e:	fff7c793          	not	a5,a5
    800008a2:	0009a583          	lw	a1,0(s3)
    800008a6:	8622                	mv	a2,s0
    800008a8:	0087e863          	bltu	a5,s0,800008b8 <file_pread+0x3c>
    800008ac:	00015797          	auipc	a5,0x15
    800008b0:	8247b783          	ld	a5,-2012(a5) # 800150d0 <first_free_paddr>
    800008b4:	00f40633          	add	a2,s0,a5
    800008b8:	7402                	ld	s0,32(sp)
    800008ba:	70a2                	ld	ra,40(sp)
    800008bc:	69a2                	ld	s3,8(sp)
    800008be:	874a                	mv	a4,s2
    800008c0:	86a6                	mv	a3,s1
    800008c2:	6942                	ld	s2,16(sp)
    800008c4:	64e2                	ld	s1,24(sp)
    800008c6:	4881                	li	a7,0
    800008c8:	4801                	li	a6,0
    800008ca:	4781                	li	a5,0
    800008cc:	04300513          	li	a0,67
    800008d0:	6145                	addi	sp,sp,48
    800008d2:	aa1d                	j	80000a08 <frontend_syscall>

00000000800008d4 <file_write>:
    800008d4:	1101                	addi	sp,sp,-32
    800008d6:	e822                	sd	s0,16(sp)
    800008d8:	e426                	sd	s1,8(sp)
    800008da:	842e                	mv	s0,a1
    800008dc:	84b2                	mv	s1,a2
    800008de:	e04a                	sd	s2,0(sp)
    800008e0:	4605                	li	a2,1
    800008e2:	892a                	mv	s2,a0
    800008e4:	85a6                	mv	a1,s1
    800008e6:	8522                	mv	a0,s0
    800008e8:	ec06                	sd	ra,24(sp)
    800008ea:	619000ef          	jal	ra,80001702 <populate_mapping>
    800008ee:	800007b7          	lui	a5,0x80000
    800008f2:	fff7c793          	not	a5,a5
    800008f6:	00092583          	lw	a1,0(s2)
    800008fa:	8622                	mv	a2,s0
    800008fc:	0087e863          	bltu	a5,s0,8000090c <file_write+0x38>
    80000900:	00014797          	auipc	a5,0x14
    80000904:	7d07b783          	ld	a5,2000(a5) # 800150d0 <first_free_paddr>
    80000908:	00f40633          	add	a2,s0,a5
    8000090c:	6442                	ld	s0,16(sp)
    8000090e:	60e2                	ld	ra,24(sp)
    80000910:	6902                	ld	s2,0(sp)
    80000912:	86a6                	mv	a3,s1
    80000914:	64a2                	ld	s1,8(sp)
    80000916:	4881                	li	a7,0
    80000918:	4801                	li	a6,0
    8000091a:	4781                	li	a5,0
    8000091c:	4701                	li	a4,0
    8000091e:	04000513          	li	a0,64
    80000922:	6105                	addi	sp,sp,32
    80000924:	a0d5                	j	80000a08 <frontend_syscall>

0000000080000926 <file_pwrite>:
    80000926:	7179                	addi	sp,sp,-48
    80000928:	f022                	sd	s0,32(sp)
    8000092a:	ec26                	sd	s1,24(sp)
    8000092c:	842e                	mv	s0,a1
    8000092e:	84b2                	mv	s1,a2
    80000930:	e44e                	sd	s3,8(sp)
    80000932:	4605                	li	a2,1
    80000934:	89aa                	mv	s3,a0
    80000936:	85a6                	mv	a1,s1
    80000938:	8522                	mv	a0,s0
    8000093a:	e84a                	sd	s2,16(sp)
    8000093c:	f406                	sd	ra,40(sp)
    8000093e:	8936                	mv	s2,a3
    80000940:	5c3000ef          	jal	ra,80001702 <populate_mapping>
    80000944:	800007b7          	lui	a5,0x80000
    80000948:	fff7c793          	not	a5,a5
    8000094c:	0009a583          	lw	a1,0(s3)
    80000950:	8622                	mv	a2,s0
    80000952:	0087e863          	bltu	a5,s0,80000962 <file_pwrite+0x3c>
    80000956:	00014797          	auipc	a5,0x14
    8000095a:	77a7b783          	ld	a5,1914(a5) # 800150d0 <first_free_paddr>
    8000095e:	00f40633          	add	a2,s0,a5
    80000962:	7402                	ld	s0,32(sp)
    80000964:	70a2                	ld	ra,40(sp)
    80000966:	69a2                	ld	s3,8(sp)
    80000968:	874a                	mv	a4,s2
    8000096a:	86a6                	mv	a3,s1
    8000096c:	6942                	ld	s2,16(sp)
    8000096e:	64e2                	ld	s1,24(sp)
    80000970:	4881                	li	a7,0
    80000972:	4801                	li	a6,0
    80000974:	4781                	li	a5,0
    80000976:	04400513          	li	a0,68
    8000097a:	6145                	addi	sp,sp,48
    8000097c:	a071                	j	80000a08 <frontend_syscall>

000000008000097e <file_stat>:
    8000097e:	7135                	addi	sp,sp,-160
    80000980:	800007b7          	lui	a5,0x80000
    80000984:	e922                	sd	s0,144(sp)
    80000986:	e526                	sd	s1,136(sp)
    80000988:	840a                	mv	s0,sp
    8000098a:	ed06                	sd	ra,152(sp)
    8000098c:	fff7c793          	not	a5,a5
    80000990:	84ae                	mv	s1,a1
    80000992:	8622                	mv	a2,s0
    80000994:	410c                	lw	a1,0(a0)
    80000996:	0087e763          	bltu	a5,s0,800009a4 <file_stat+0x26>
    8000099a:	00014617          	auipc	a2,0x14
    8000099e:	73663603          	ld	a2,1846(a2) # 800150d0 <first_free_paddr>
    800009a2:	9622                	add	a2,a2,s0
    800009a4:	4881                	li	a7,0
    800009a6:	4801                	li	a6,0
    800009a8:	4781                	li	a5,0
    800009aa:	4701                	li	a4,0
    800009ac:	4681                	li	a3,0
    800009ae:	05000513          	li	a0,80
    800009b2:	056000ef          	jal	ra,80000a08 <frontend_syscall>
    800009b6:	87aa                	mv	a5,a0
    800009b8:	85a2                	mv	a1,s0
    800009ba:	8526                	mv	a0,s1
    800009bc:	843e                	mv	s0,a5
    800009be:	0c8000ef          	jal	ra,80000a86 <copy_stat>
    800009c2:	60ea                	ld	ra,152(sp)
    800009c4:	0004051b          	sext.w	a0,s0
    800009c8:	644a                	ld	s0,144(sp)
    800009ca:	64aa                	ld	s1,136(sp)
    800009cc:	610d                	addi	sp,sp,160
    800009ce:	8082                	ret

00000000800009d0 <file_truncate>:
    800009d0:	862e                	mv	a2,a1
    800009d2:	410c                	lw	a1,0(a0)
    800009d4:	1141                	addi	sp,sp,-16
    800009d6:	4881                	li	a7,0
    800009d8:	4801                	li	a6,0
    800009da:	4781                	li	a5,0
    800009dc:	4701                	li	a4,0
    800009de:	4681                	li	a3,0
    800009e0:	02e00513          	li	a0,46
    800009e4:	e406                	sd	ra,8(sp)
    800009e6:	022000ef          	jal	ra,80000a08 <frontend_syscall>
    800009ea:	60a2                	ld	ra,8(sp)
    800009ec:	2501                	sext.w	a0,a0
    800009ee:	0141                	addi	sp,sp,16
    800009f0:	8082                	ret

00000000800009f2 <file_lseek>:
    800009f2:	832e                	mv	t1,a1
    800009f4:	410c                	lw	a1,0(a0)
    800009f6:	86b2                	mv	a3,a2
    800009f8:	4881                	li	a7,0
    800009fa:	4801                	li	a6,0
    800009fc:	4781                	li	a5,0
    800009fe:	4701                	li	a4,0
    80000a00:	861a                	mv	a2,t1
    80000a02:	03e00513          	li	a0,62
    80000a06:	a009                	j	80000a08 <frontend_syscall>

0000000080000a08 <frontend_syscall>:
    80000a08:	1141                	addi	sp,sp,-16
    80000a0a:	e406                	sd	ra,8(sp)
    80000a0c:	e022                	sd	s0,0(sp)
    80000a0e:	00014317          	auipc	t1,0x14
    80000a12:	61230313          	addi	t1,t1,1554 # 80015020 <lock.2295>
    80000a16:	5efd                	li	t4,-1
    80000a18:	00032e03          	lw	t3,0(t1)
    80000a1c:	2e01                	sext.w	t3,t3
    80000a1e:	fe0e1de3          	bnez	t3,80000a18 <frontend_syscall+0x10>
    80000a22:	8e76                	mv	t3,t4
    80000a24:	0dc32e2f          	amoswap.w.aq	t3,t3,(t1)
    80000a28:	2e01                	sext.w	t3,t3
    80000a2a:	0ff0000f          	fence
    80000a2e:	fe0e15e3          	bnez	t3,80000a18 <frontend_syscall+0x10>
    80000a32:	0000c417          	auipc	s0,0xc
    80000a36:	9ce40413          	addi	s0,s0,-1586 # 8000c400 <magic_mem.2294>
    80000a3a:	e008                	sd	a0,0(s0)
    80000a3c:	e40c                	sd	a1,8(s0)
    80000a3e:	e810                	sd	a2,16(s0)
    80000a40:	ec14                	sd	a3,24(s0)
    80000a42:	f018                	sd	a4,32(s0)
    80000a44:	f41c                	sd	a5,40(s0)
    80000a46:	03043823          	sd	a6,48(s0)
    80000a4a:	8522                	mv	a0,s0
    80000a4c:	03143c23          	sd	a7,56(s0)
    80000a50:	31e020ef          	jal	ra,80002d6e <htif_syscall>
    80000a54:	6008                	ld	a0,0(s0)
    80000a56:	0ff0000f          	fence
    80000a5a:	60a2                	ld	ra,8(sp)
    80000a5c:	6402                	ld	s0,0(sp)
    80000a5e:	00014797          	auipc	a5,0x14
    80000a62:	5c07a123          	sw	zero,1474(a5) # 80015020 <lock.2295>
    80000a66:	0141                	addi	sp,sp,16
    80000a68:	8082                	ret

0000000080000a6a <shutdown>:
    80000a6a:	1141                	addi	sp,sp,-16
    80000a6c:	85aa                	mv	a1,a0
    80000a6e:	4881                	li	a7,0
    80000a70:	4801                	li	a6,0
    80000a72:	4781                	li	a5,0
    80000a74:	4701                	li	a4,0
    80000a76:	4681                	li	a3,0
    80000a78:	4601                	li	a2,0
    80000a7a:	05d00513          	li	a0,93
    80000a7e:	e406                	sd	ra,8(sp)
    80000a80:	f89ff0ef          	jal	ra,80000a08 <frontend_syscall>
    80000a84:	a001                	j	80000a84 <shutdown+0x1a>

0000000080000a86 <copy_stat>:
    80000a86:	0005b383          	ld	t2,0(a1) # fffffffffffff000 <_end+0xffffffff7ffe9000>
    80000a8a:	0085b283          	ld	t0,8(a1)
    80000a8e:	0105af83          	lw	t6,16(a1)
    80000a92:	0145af03          	lw	t5,20(a1)
    80000a96:	0185ae83          	lw	t4,24(a1)
    80000a9a:	01c5ae03          	lw	t3,28(a1)
    80000a9e:	0205b303          	ld	t1,32(a1)
    80000aa2:	0305b883          	ld	a7,48(a1)
    80000aa6:	0385e803          	lwu	a6,56(a1)
    80000aaa:	61b0                	ld	a2,64(a1)
    80000aac:	65b4                	ld	a3,72(a1)
    80000aae:	6db8                	ld	a4,88(a1)
    80000ab0:	75bc                	ld	a5,104(a1)
    80000ab2:	00751023          	sh	t2,0(a0)
    80000ab6:	00551123          	sh	t0,2(a0)
    80000aba:	01f52223          	sw	t6,4(a0)
    80000abe:	01e51423          	sh	t5,8(a0)
    80000ac2:	01d51523          	sh	t4,10(a0)
    80000ac6:	01c51623          	sh	t3,12(a0)
    80000aca:	00651723          	sh	t1,14(a0)
    80000ace:	01153823          	sd	a7,16(a0)
    80000ad2:	05053423          	sd	a6,72(a0)
    80000ad6:	e930                	sd	a2,80(a0)
    80000ad8:	ed14                	sd	a3,24(a0)
    80000ada:	f518                	sd	a4,40(a0)
    80000adc:	fd1c                	sd	a5,56(a0)
    80000ade:	8082                	ret

0000000080000ae0 <load_elf>:
    80000ae0:	7131                	addi	sp,sp,-192
    80000ae2:	ed4e                	sd	s3,152(sp)
    80000ae4:	4601                	li	a2,0
    80000ae6:	89ae                	mv	s3,a1
    80000ae8:	4581                	li	a1,0
    80000aea:	fd06                	sd	ra,184(sp)
    80000aec:	f922                	sd	s0,176(sp)
    80000aee:	f526                	sd	s1,168(sp)
    80000af0:	f14a                	sd	s2,160(sp)
    80000af2:	e952                	sd	s4,144(sp)
    80000af4:	e556                	sd	s5,136(sp)
    80000af6:	e15a                	sd	s6,128(sp)
    80000af8:	fcde                	sd	s7,120(sp)
    80000afa:	f8e2                	sd	s8,112(sp)
    80000afc:	f4e6                	sd	s9,104(sp)
    80000afe:	f0ea                	sd	s10,96(sp)
    80000b00:	ecee                	sd	s11,88(sp)
    80000b02:	e42a                	sd	a0,8(sp)
    80000b04:	cc9ff0ef          	jal	ra,800007cc <file_open>
    80000b08:	77fd                	lui	a5,0xfffff
    80000b0a:	18f57363          	bgeu	a0,a5,80000c90 <load_elf+0x1b0>
    80000b0e:	4681                	li	a3,0
    80000b10:	04000613          	li	a2,64
    80000b14:	080c                	addi	a1,sp,16
    80000b16:	8aaa                	mv	s5,a0
    80000b18:	d65ff0ef          	jal	ra,8000087c <file_pread>
    80000b1c:	03f00793          	li	a5,63
    80000b20:	16a7d863          	bge	a5,a0,80000c90 <load_elf+0x1b0>
    80000b24:	67c2                	ld	a5,16(sp)
    80000b26:	464c4737          	lui	a4,0x464c4
    80000b2a:	57f70713          	addi	a4,a4,1407 # 464c457f <MEM_START-0x39b3ba81>
    80000b2e:	02079693          	slli	a3,a5,0x20
    80000b32:	9281                	srli	a3,a3,0x20
    80000b34:	54fd                	li	s1,-1
    80000b36:	14e69d63          	bne	a3,a4,80000c90 <load_elf+0x1b0>
    80000b3a:	0184d713          	srli	a4,s1,0x18
    80000b3e:	8ff9                	and	a5,a5,a4
    80000b40:	0000b717          	auipc	a4,0xb
    80000b44:	94073703          	ld	a4,-1728(a4) # 8000b480 <trap_table+0x80>
    80000b48:	18e79563          	bne	a5,a4,80000cd2 <load_elf+0x1f2>
    80000b4c:	04815603          	lhu	a2,72(sp)
    80000b50:	0189b783          	ld	a5,24(s3)
    80000b54:	00361413          	slli	s0,a2,0x3
    80000b58:	8c11                	sub	s0,s0,a2
    80000b5a:	040e                	slli	s0,s0,0x3
    80000b5c:	1287ea63          	bltu	a5,s0,80000c90 <load_elf+0x1b0>
    80000b60:	76c2                	ld	a3,48(sp)
    80000b62:	0109b583          	ld	a1,16(s3)
    80000b66:	8622                	mv	a2,s0
    80000b68:	8556                	mv	a0,s5
    80000b6a:	d13ff0ef          	jal	ra,8000087c <file_pread>
    80000b6e:	12854163          	blt	a0,s0,80000c90 <load_elf+0x1b0>
    80000b72:	02015a03          	lhu	s4,32(sp)
    80000b76:	04815683          	lhu	a3,72(sp)
    80000b7a:	7722                	ld	a4,40(sp)
    80000b7c:	1a75                	addi	s4,s4,-3
    80000b7e:	001a3a13          	seqz	s4,s4
    80000b82:	0a32                	slli	s4,s4,0xc
    80000b84:	0006879b          	sext.w	a5,a3
    80000b88:	9752                	add	a4,a4,s4
    80000b8a:	03800613          	li	a2,56
    80000b8e:	00f9a223          	sw	a5,4(s3)
    80000b92:	00c9a023          	sw	a2,0(s3)
    80000b96:	02e9b423          	sd	a4,40(s3)
    80000b9a:	37fd                	addiw	a5,a5,-1
    80000b9c:	0109b583          	ld	a1,16(s3)
    80000ba0:	10978763          	beq	a5,s1,80000cae <load_elf+0x1ce>
    80000ba4:	fff6871b          	addiw	a4,a3,-1
    80000ba8:	02071613          	slli	a2,a4,0x20
    80000bac:	00369d13          	slli	s10,a3,0x3
    80000bb0:	9201                	srli	a2,a2,0x20
    80000bb2:	40dd0d33          	sub	s10,s10,a3
    80000bb6:	00379413          	slli	s0,a5,0x3
    80000bba:	0d0e                	slli	s10,s10,0x3
    80000bbc:	00361713          	slli	a4,a2,0x3
    80000bc0:	8c1d                	sub	s0,s0,a5
    80000bc2:	f90d0d13          	addi	s10,s10,-112
    80000bc6:	8f11                	sub	a4,a4,a2
    80000bc8:	040e                	slli	s0,s0,0x3
    80000bca:	9d2e                	add	s10,s10,a1
    80000bcc:	070e                	slli	a4,a4,0x3
    80000bce:	6b85                	lui	s7,0x1
    80000bd0:	6b21                	lui	s6,0x8
    80000bd2:	942e                	add	s0,s0,a1
    80000bd4:	40ed0d33          	sub	s10,s10,a4
    80000bd8:	4d85                	li	s11,1
    80000bda:	1bfd                	addi	s7,s7,-1
    80000bdc:	0b49                	addi	s6,s6,18
    80000bde:	a029                	j	80000be8 <load_elf+0x108>
    80000be0:	fc840413          	addi	s0,s0,-56
    80000be4:	0da40563          	beq	s0,s10,80000cae <load_elf+0x1ce>
    80000be8:	401c                	lw	a5,0(s0)
    80000bea:	ffb79be3          	bne	a5,s11,80000be0 <load_elf+0x100>
    80000bee:	741c                	ld	a5,40(s0)
    80000bf0:	dbe5                	beqz	a5,80000be0 <load_elf+0x100>
    80000bf2:	01043c83          	ld	s9,16(s0)
    80000bf6:	0309b703          	ld	a4,48(s3)
    80000bfa:	014c8933          	add	s2,s9,s4
    80000bfe:	97ca                	add	a5,a5,s2
    80000c00:	017cfcb3          	and	s9,s9,s7
    80000c04:	00f77463          	bgeu	a4,a5,80000c0c <load_elf+0x12c>
    80000c08:	02f9b823          	sd	a5,48(s3)
    80000c0c:	86da                	mv	a3,s6
    80000c0e:	000c9363          	bnez	s9,80000c14 <load_elf+0x134>
    80000c12:	46c9                	li	a3,18
    80000c14:	4058                	lw	a4,4(s0)
    80000c16:	641c                	ld	a5,8(s0)
    80000c18:	700c                	ld	a1,32(s0)
    80000c1a:	0027149b          	slliw	s1,a4,0x2
    80000c1e:	0027561b          	srliw	a2,a4,0x2
    80000c22:	8a05                	andi	a2,a2,1
    80000c24:	8891                	andi	s1,s1,4
    80000c26:	8cd1                	or	s1,s1,a2
    80000c28:	0024e613          	ori	a2,s1,2
    80000c2c:	41990c33          	sub	s8,s2,s9
    80000c30:	00277813          	andi	a6,a4,2
    80000c34:	419787b3          	sub	a5,a5,s9
    80000c38:	8756                	mv	a4,s5
    80000c3a:	2601                	sext.w	a2,a2
    80000c3c:	95e6                	add	a1,a1,s9
    80000c3e:	8562                	mv	a0,s8
    80000c40:	0104e4b3          	or	s1,s1,a6
    80000c44:	4d6000ef          	jal	ra,8000111a <__do_mmap>
    80000c48:	04ac1463          	bne	s8,a0,80000c90 <load_elf+0x1b0>
    80000c4c:	8666                	mv	a2,s9
    80000c4e:	4581                	li	a1,0
    80000c50:	606070ef          	jal	ra,80008256 <memset>
    80000c54:	0024f793          	andi	a5,s1,2
    80000c58:	c3b9                	beqz	a5,80000c9e <load_elf+0x1be>
    80000c5a:	02043803          	ld	a6,32(s0)
    80000c5e:	740c                	ld	a1,40(s0)
    80000c60:	187d                	addi	a6,a6,-1
    80000c62:	9866                	add	a6,a6,s9
    80000c64:	00c85813          	srli	a6,a6,0xc
    80000c68:	0805                	addi	a6,a6,1
    80000c6a:	0832                	slli	a6,a6,0xc
    80000c6c:	419807b3          	sub	a5,a6,s9
    80000c70:	f6b7f8e3          	bgeu	a5,a1,80000be0 <load_elf+0x100>
    80000c74:	993e                	add	s2,s2,a5
    80000c76:	95e6                	add	a1,a1,s9
    80000c78:	4781                	li	a5,0
    80000c7a:	4701                	li	a4,0
    80000c7c:	03200693          	li	a3,50
    80000c80:	8626                	mv	a2,s1
    80000c82:	410585b3          	sub	a1,a1,a6
    80000c86:	854a                	mv	a0,s2
    80000c88:	492000ef          	jal	ra,8000111a <__do_mmap>
    80000c8c:	f4a90ae3          	beq	s2,a0,80000be0 <load_elf+0x100>
    80000c90:	65a2                	ld	a1,8(sp)
    80000c92:	00008517          	auipc	a0,0x8
    80000c96:	5be50513          	addi	a0,a0,1470 # 80009250 <softfloat_countLeadingZeros8+0x208>
    80000c9a:	168000ef          	jal	ra,80000e02 <do_panic>
    80000c9e:	700c                	ld	a1,32(s0)
    80000ca0:	8626                	mv	a2,s1
    80000ca2:	8562                	mv	a0,s8
    80000ca4:	95e6                	add	a1,a1,s9
    80000ca6:	033000ef          	jal	ra,800014d8 <do_mprotect>
    80000caa:	d945                	beqz	a0,80000c5a <load_elf+0x17a>
    80000cac:	b7d5                	j	80000c90 <load_elf+0x1b0>
    80000cae:	8556                	mv	a0,s5
    80000cb0:	9b5ff0ef          	jal	ra,80000664 <file_decref>
    80000cb4:	70ea                	ld	ra,184(sp)
    80000cb6:	744a                	ld	s0,176(sp)
    80000cb8:	74aa                	ld	s1,168(sp)
    80000cba:	790a                	ld	s2,160(sp)
    80000cbc:	69ea                	ld	s3,152(sp)
    80000cbe:	6a4a                	ld	s4,144(sp)
    80000cc0:	6aaa                	ld	s5,136(sp)
    80000cc2:	6b0a                	ld	s6,128(sp)
    80000cc4:	7be6                	ld	s7,120(sp)
    80000cc6:	7c46                	ld	s8,112(sp)
    80000cc8:	7ca6                	ld	s9,104(sp)
    80000cca:	7d06                	ld	s10,96(sp)
    80000ccc:	6de6                	ld	s11,88(sp)
    80000cce:	6129                	addi	sp,sp,192
    80000cd0:	8082                	ret
    80000cd2:	00008517          	auipc	a0,0x8
    80000cd6:	55e50513          	addi	a0,a0,1374 # 80009230 <softfloat_countLeadingZeros8+0x1e8>
    80000cda:	00008697          	auipc	a3,0x8
    80000cde:	53668693          	addi	a3,a3,1334 # 80009210 <softfloat_countLeadingZeros8+0x1c8>
    80000ce2:	02800613          	li	a2,40
    80000ce6:	00008597          	auipc	a1,0x8
    80000cea:	53a58593          	addi	a1,a1,1338 # 80009220 <softfloat_countLeadingZeros8+0x1d8>
    80000cee:	1b5010ef          	jal	ra,800026a2 <printm>
    80000cf2:	6541                	lui	a0,0x10
    80000cf4:	157d                	addi	a0,a0,-1
    80000cf6:	21d010ef          	jal	ra,80002712 <poweroff>

0000000080000cfa <vprintk>:
    80000cfa:	716d                	addi	sp,sp,-272
    80000cfc:	862a                	mv	a2,a0
    80000cfe:	86ae                	mv	a3,a1
    80000d00:	850a                	mv	a0,sp
    80000d02:	10000593          	li	a1,256
    80000d06:	e606                	sd	ra,264(sp)
    80000d08:	2aa070ef          	jal	ra,80007fb2 <vsnprintf>
    80000d0c:	0005071b          	sext.w	a4,a0
    80000d10:	0ff00793          	li	a5,255
    80000d14:	10000613          	li	a2,256
    80000d18:	00e7e363          	bltu	a5,a4,80000d1e <vprintk+0x24>
    80000d1c:	862a                	mv	a2,a0
    80000d1e:	858a                	mv	a1,sp
    80000d20:	0000a517          	auipc	a0,0xa
    80000d24:	2f050513          	addi	a0,a0,752 # 8000b010 <files+0x10>
    80000d28:	badff0ef          	jal	ra,800008d4 <file_write>
    80000d2c:	60b2                	ld	ra,264(sp)
    80000d2e:	6151                	addi	sp,sp,272
    80000d30:	8082                	ret

0000000080000d32 <printk>:
    80000d32:	711d                	addi	sp,sp,-96
    80000d34:	02810313          	addi	t1,sp,40
    80000d38:	f42e                	sd	a1,40(sp)
    80000d3a:	859a                	mv	a1,t1
    80000d3c:	ec06                	sd	ra,24(sp)
    80000d3e:	f832                	sd	a2,48(sp)
    80000d40:	fc36                	sd	a3,56(sp)
    80000d42:	e0ba                	sd	a4,64(sp)
    80000d44:	e4be                	sd	a5,72(sp)
    80000d46:	e8c2                	sd	a6,80(sp)
    80000d48:	ecc6                	sd	a7,88(sp)
    80000d4a:	e41a                	sd	t1,8(sp)
    80000d4c:	fafff0ef          	jal	ra,80000cfa <vprintk>
    80000d50:	60e2                	ld	ra,24(sp)
    80000d52:	6125                	addi	sp,sp,96
    80000d54:	8082                	ret

0000000080000d56 <dump_tf>:
    80000d56:	7139                	addi	sp,sp,-64
    80000d58:	f426                	sd	s1,40(sp)
    80000d5a:	f04a                	sd	s2,32(sp)
    80000d5c:	ec4e                	sd	s3,24(sp)
    80000d5e:	e852                	sd	s4,16(sp)
    80000d60:	e456                	sd	s5,8(sp)
    80000d62:	e05a                	sd	s6,0(sp)
    80000d64:	fc06                	sd	ra,56(sp)
    80000d66:	f822                	sd	s0,48(sp)
    80000d68:	00007a17          	auipc	s4,0x7
    80000d6c:	5f0a0a13          	addi	s4,s4,1520 # 80008358 <regnames.2623>
    80000d70:	892a                	mv	s2,a0
    80000d72:	00053023          	sd	zero,0(a0)
    80000d76:	8b52                	mv	s6,s4
    80000d78:	02000493          	li	s1,32
    80000d7c:	00008597          	auipc	a1,0x8
    80000d80:	4f458593          	addi	a1,a1,1268 # 80009270 <softfloat_countLeadingZeros8+0x228>
    80000d84:	4601                	li	a2,0
    80000d86:	4a81                	li	s5,0
    80000d88:	00008997          	auipc	s3,0x8
    80000d8c:	4f098993          	addi	s3,s3,1264 # 80009278 <softfloat_countLeadingZeros8+0x230>
    80000d90:	fe848413          	addi	s0,s1,-24
    80000d94:	02000693          	li	a3,32
    80000d98:	854e                	mv	a0,s3
    80000d9a:	f99ff0ef          	jal	ra,80000d32 <printk>
    80000d9e:	008a0733          	add	a4,s4,s0
    80000da2:	008907b3          	add	a5,s2,s0
    80000da6:	0421                	addi	s0,s0,8
    80000da8:	630c                	ld	a1,0(a4)
    80000daa:	6390                	ld	a2,0(a5)
    80000dac:	fe9414e3          	bne	s0,s1,80000d94 <dump_tf+0x3e>
    80000db0:	46a9                	li	a3,10
    80000db2:	854e                	mv	a0,s3
    80000db4:	f7fff0ef          	jal	ra,80000d32 <printk>
    80000db8:	2a91                	addiw	s5,s5,4
    80000dba:	02000793          	li	a5,32
    80000dbe:	020b0b13          	addi	s6,s6,32 # 8020 <MEM_START-0x7fff7fe0>
    80000dc2:	00fa8a63          	beq	s5,a5,80000dd6 <dump_tf+0x80>
    80000dc6:	009907b3          	add	a5,s2,s1
    80000dca:	6390                	ld	a2,0(a5)
    80000dcc:	000b3583          	ld	a1,0(s6)
    80000dd0:	02048493          	addi	s1,s1,32
    80000dd4:	bf75                	j	80000d90 <dump_tf+0x3a>
    80000dd6:	7442                	ld	s0,48(sp)
    80000dd8:	10093703          	ld	a4,256(s2)
    80000ddc:	12092683          	lw	a3,288(s2)
    80000de0:	11093603          	ld	a2,272(s2)
    80000de4:	10893583          	ld	a1,264(s2)
    80000de8:	70e2                	ld	ra,56(sp)
    80000dea:	74a2                	ld	s1,40(sp)
    80000dec:	7902                	ld	s2,32(sp)
    80000dee:	69e2                	ld	s3,24(sp)
    80000df0:	6a42                	ld	s4,16(sp)
    80000df2:	6aa2                	ld	s5,8(sp)
    80000df4:	6b02                	ld	s6,0(sp)
    80000df6:	00008517          	auipc	a0,0x8
    80000dfa:	49250513          	addi	a0,a0,1170 # 80009288 <softfloat_countLeadingZeros8+0x240>
    80000dfe:	6121                	addi	sp,sp,64
    80000e00:	bf0d                	j	80000d32 <printk>

0000000080000e02 <do_panic>:
    80000e02:	711d                	addi	sp,sp,-96
    80000e04:	02810313          	addi	t1,sp,40
    80000e08:	f42e                	sd	a1,40(sp)
    80000e0a:	859a                	mv	a1,t1
    80000e0c:	ec06                	sd	ra,24(sp)
    80000e0e:	f832                	sd	a2,48(sp)
    80000e10:	fc36                	sd	a3,56(sp)
    80000e12:	e0ba                	sd	a4,64(sp)
    80000e14:	e4be                	sd	a5,72(sp)
    80000e16:	e8c2                	sd	a6,80(sp)
    80000e18:	ecc6                	sd	a7,88(sp)
    80000e1a:	e41a                	sd	t1,8(sp)
    80000e1c:	edfff0ef          	jal	ra,80000cfa <vprintk>
    80000e20:	557d                	li	a0,-1
    80000e22:	c49ff0ef          	jal	ra,80000a6a <shutdown>

0000000080000e26 <kassert_fail>:
    80000e26:	1141                	addi	sp,sp,-16
    80000e28:	862a                	mv	a2,a0
    80000e2a:	8586                	mv	a1,ra
    80000e2c:	00008517          	auipc	a0,0x8
    80000e30:	48450513          	addi	a0,a0,1156 # 800092b0 <softfloat_countLeadingZeros8+0x268>
    80000e34:	e406                	sd	ra,8(sp)
    80000e36:	fcdff0ef          	jal	ra,80000e02 <do_panic>

0000000080000e3a <__page_alloc>:
    80000e3a:	00014697          	auipc	a3,0x14
    80000e3e:	1f668693          	addi	a3,a3,502 # 80015030 <next_free_page>
    80000e42:	629c                	ld	a5,0(a3)
    80000e44:	1141                	addi	sp,sp,-16
    80000e46:	e406                	sd	ra,8(sp)
    80000e48:	00014717          	auipc	a4,0x14
    80000e4c:	1e073703          	ld	a4,480(a4) # 80015028 <free_pages>
    80000e50:	02e78363          	beq	a5,a4,80000e76 <__page_alloc+0x3c>
    80000e54:	00014617          	auipc	a2,0x14
    80000e58:	1e463603          	ld	a2,484(a2) # 80015038 <first_free_page>
    80000e5c:	00c79713          	slli	a4,a5,0xc
    80000e60:	9732                	add	a4,a4,a2
    80000e62:	0785                	addi	a5,a5,1
    80000e64:	6605                	lui	a2,0x1
    80000e66:	4581                	li	a1,0
    80000e68:	853a                	mv	a0,a4
    80000e6a:	e29c                	sd	a5,0(a3)
    80000e6c:	3ea070ef          	jal	ra,80008256 <memset>
    80000e70:	60a2                	ld	ra,8(sp)
    80000e72:	0141                	addi	sp,sp,16
    80000e74:	8082                	ret
    80000e76:	00008517          	auipc	a0,0x8
    80000e7a:	55250513          	addi	a0,a0,1362 # 800093c8 <softfloat_countLeadingZeros8+0x380>
    80000e7e:	fa9ff0ef          	jal	ra,80000e26 <kassert_fail>

0000000080000e82 <__walk_internal>:
    80000e82:	01e55793          	srli	a5,a0,0x1e
    80000e86:	1ff7f793          	andi	a5,a5,511
    80000e8a:	00379693          	slli	a3,a5,0x3
    80000e8e:	00014797          	auipc	a5,0x14
    80000e92:	2727b783          	ld	a5,626(a5) # 80015100 <root_page_table>
    80000e96:	97b6                	add	a5,a5,a3
    80000e98:	6394                	ld	a3,0(a5)
    80000e9a:	872a                	mv	a4,a0
    80000e9c:	0016f613          	andi	a2,a3,1
    80000ea0:	c60d                	beqz	a2,80000eca <__walk_internal+0x48>
    80000ea2:	01555793          	srli	a5,a0,0x15
    80000ea6:	82a9                	srli	a3,a3,0xa
    80000ea8:	1ff7f793          	andi	a5,a5,511
    80000eac:	06b2                	slli	a3,a3,0xc
    80000eae:	078e                	slli	a5,a5,0x3
    80000eb0:	97b6                	add	a5,a5,a3
    80000eb2:	6394                	ld	a3,0(a5)
    80000eb4:	0016f613          	andi	a2,a3,1
    80000eb8:	ca09                	beqz	a2,80000eca <__walk_internal+0x48>
    80000eba:	8131                	srli	a0,a0,0xc
    80000ebc:	82a9                	srli	a3,a3,0xa
    80000ebe:	1ff57513          	andi	a0,a0,511
    80000ec2:	06b2                	slli	a3,a3,0xc
    80000ec4:	050e                	slli	a0,a0,0x3
    80000ec6:	9536                	add	a0,a0,a3
    80000ec8:	8082                	ret
    80000eca:	4501                	li	a0,0
    80000ecc:	e191                	bnez	a1,80000ed0 <__walk_internal+0x4e>
    80000ece:	8082                	ret
    80000ed0:	85be                	mv	a1,a5
    80000ed2:	853a                	mv	a0,a4
    80000ed4:	a009                	j	80000ed6 <__continue_walk_create>

0000000080000ed6 <__continue_walk_create>:
    80000ed6:	1101                	addi	sp,sp,-32
    80000ed8:	e822                	sd	s0,16(sp)
    80000eda:	e426                	sd	s1,8(sp)
    80000edc:	ec06                	sd	ra,24(sp)
    80000ede:	84ae                	mv	s1,a1
    80000ee0:	842a                	mv	s0,a0
    80000ee2:	f59ff0ef          	jal	ra,80000e3a <__page_alloc>
    80000ee6:	00c55793          	srli	a5,a0,0xc
    80000eea:	07aa                	slli	a5,a5,0xa
    80000eec:	0017e793          	ori	a5,a5,1
    80000ef0:	8522                	mv	a0,s0
    80000ef2:	6442                	ld	s0,16(sp)
    80000ef4:	60e2                	ld	ra,24(sp)
    80000ef6:	e09c                	sd	a5,0(s1)
    80000ef8:	64a2                	ld	s1,8(sp)
    80000efa:	4585                	li	a1,1
    80000efc:	6105                	addi	sp,sp,32
    80000efe:	b751                	j	80000e82 <__walk_internal>

0000000080000f00 <__handle_page_fault>:
    80000f00:	7179                	addi	sp,sp,-48
    80000f02:	e84a                	sd	s2,16(sp)
    80000f04:	797d                	lui	s2,0xfffff
    80000f06:	01257933          	and	s2,a0,s2
    80000f0a:	ec26                	sd	s1,24(sp)
    80000f0c:	e44e                	sd	s3,8(sp)
    80000f0e:	84ae                	mv	s1,a1
    80000f10:	89aa                	mv	s3,a0
    80000f12:	4581                	li	a1,0
    80000f14:	854a                	mv	a0,s2
    80000f16:	f406                	sd	ra,40(sp)
    80000f18:	f022                	sd	s0,32(sp)
    80000f1a:	e052                	sd	s4,0(sp)
    80000f1c:	f67ff0ef          	jal	ra,80000e82 <__walk_internal>
    80000f20:	12050d63          	beqz	a0,8000105a <__handle_page_fault+0x15a>
    80000f24:	6100                	ld	s0,0(a0)
    80000f26:	8a2a                	mv	s4,a0
    80000f28:	12040963          	beqz	s0,8000105a <__handle_page_fault+0x15a>
    80000f2c:	00190793          	addi	a5,s2,1 # fffffffffffff001 <_end+0xffffffff7ffe9001>
    80000f30:	00014717          	auipc	a4,0x14
    80000f34:	17873703          	ld	a4,376(a4) # 800150a8 <current+0x48>
    80000f38:	12f76163          	bltu	a4,a5,8000105a <__handle_page_fault+0x15a>
    80000f3c:	00147793          	andi	a5,s0,1
    80000f40:	ebc1                	bnez	a5,80000fd0 <__handle_page_fault+0xd0>
    80000f42:	00014797          	auipc	a5,0x14
    80000f46:	18e7b783          	ld	a5,398(a5) # 800150d0 <first_free_paddr>
    80000f4a:	83b1                	srli	a5,a5,0xc
    80000f4c:	00c9d993          	srli	s3,s3,0xc
    80000f50:	99be                	add	s3,s3,a5
    80000f52:	09aa                	slli	s3,s3,0xa
    80000f54:	0c79e793          	ori	a5,s3,199
    80000f58:	e11c                	sd	a5,0(a0)
    80000f5a:	12000073          	sfence.vma
    80000f5e:	6808                	ld	a0,16(s0)
    80000f60:	c16d                	beqz	a0,80001042 <__handle_page_fault+0x142>
    80000f62:	601c                	ld	a5,0(s0)
    80000f64:	6410                	ld	a2,8(s0)
    80000f66:	6c14                	ld	a3,24(s0)
    80000f68:	6705                	lui	a4,0x1
    80000f6a:	963e                	add	a2,a2,a5
    80000f6c:	96ca                	add	a3,a3,s2
    80000f6e:	41260633          	sub	a2,a2,s2
    80000f72:	8e9d                	sub	a3,a3,a5
    80000f74:	0ac76963          	bltu	a4,a2,80001026 <__handle_page_fault+0x126>
    80000f78:	85ca                	mv	a1,s2
    80000f7a:	903ff0ef          	jal	ra,8000087c <file_pread>
    80000f7e:	0ea05063          	blez	a0,8000105e <__handle_page_fault+0x15e>
    80000f82:	6605                	lui	a2,0x1
    80000f84:	0cc54563          	blt	a0,a2,8000104e <__handle_page_fault+0x14e>
    80000f88:	501c                	lw	a5,32(s0)
    80000f8a:	6808                	ld	a0,16(s0)
    80000f8c:	fff7871b          	addiw	a4,a5,-1
    80000f90:	d018                	sw	a4,32(s0)
    80000f92:	e701                	bnez	a4,80000f9a <__handle_page_fault+0x9a>
    80000f94:	c119                	beqz	a0,80000f9a <__handle_page_fault+0x9a>
    80000f96:	eceff0ef          	jal	ra,80000664 <file_decref>
    80000f9a:	505c                	lw	a5,36(s0)
    80000f9c:	0027f713          	andi	a4,a5,2
    80000fa0:	0047f693          	andi	a3,a5,4
    80000fa4:	8b85                	andi	a5,a5,1
    80000fa6:	2701                	sext.w	a4,a4
    80000fa8:	2681                	sext.w	a3,a3
    80000faa:	e799                	bnez	a5,80000fb8 <__handle_page_fault+0xb8>
    80000fac:	ef3d                	bnez	a4,8000102a <__handle_page_fault+0x12a>
    80000fae:	04800413          	li	s0,72
    80000fb2:	ea89                	bnez	a3,80000fc4 <__handle_page_fault+0xc4>
    80000fb4:	4409                	li	s0,2
    80000fb6:	a039                	j	80000fc4 <__handle_page_fault+0xc4>
    80000fb8:	ef3d                	bnez	a4,80001036 <__handle_page_fault+0x136>
    80000fba:	04a00413          	li	s0,74
    80000fbe:	e299                	bnez	a3,80000fc4 <__handle_page_fault+0xc4>
    80000fc0:	04200413          	li	s0,66
    80000fc4:	0089e9b3          	or	s3,s3,s0
    80000fc8:	0119e413          	ori	s0,s3,17
    80000fcc:	008a3023          	sd	s0,0(s4)
    80000fd0:	0024f793          	andi	a5,s1,2
    80000fd4:	0044f713          	andi	a4,s1,4
    80000fd8:	8885                	andi	s1,s1,1
    80000fda:	2781                	sext.w	a5,a5
    80000fdc:	2701                	sext.w	a4,a4
    80000fde:	c09d                	beqz	s1,80001004 <__handle_page_fault+0x104>
    80000fe0:	e3a1                	bnez	a5,80001020 <__handle_page_fault+0x120>
    80000fe2:	05b00793          	li	a5,91
    80000fe6:	cb39                	beqz	a4,8000103c <__handle_page_fault+0x13c>
    80000fe8:	8c7d                	and	s0,s0,a5
    80000fea:	06f41863          	bne	s0,a5,8000105a <__handle_page_fault+0x15a>
    80000fee:	12000073          	sfence.vma
    80000ff2:	4501                	li	a0,0
    80000ff4:	70a2                	ld	ra,40(sp)
    80000ff6:	7402                	ld	s0,32(sp)
    80000ff8:	64e2                	ld	s1,24(sp)
    80000ffa:	6942                	ld	s2,16(sp)
    80000ffc:	69a2                	ld	s3,8(sp)
    80000ffe:	6a02                	ld	s4,0(sp)
    80001000:	6145                	addi	sp,sp,48
    80001002:	8082                	ret
    80001004:	e791                	bnez	a5,80001010 <__handle_page_fault+0x110>
    80001006:	05900793          	li	a5,89
    8000100a:	ff79                	bnez	a4,80000fe8 <__handle_page_fault+0xe8>
    8000100c:	47cd                	li	a5,19
    8000100e:	bfe9                	j	80000fe8 <__handle_page_fault+0xe8>
    80001010:	08400693          	li	a3,132
    80001014:	0596e793          	ori	a5,a3,89
    80001018:	fb61                	bnez	a4,80000fe8 <__handle_page_fault+0xe8>
    8000101a:	0116e793          	ori	a5,a3,17
    8000101e:	b7e9                	j	80000fe8 <__handle_page_fault+0xe8>
    80001020:	0c600693          	li	a3,198
    80001024:	bfc5                	j	80001014 <__handle_page_fault+0x114>
    80001026:	6605                	lui	a2,0x1
    80001028:	bf81                	j	80000f78 <__handle_page_fault+0x78>
    8000102a:	08400413          	li	s0,132
    8000102e:	dad9                	beqz	a3,80000fc4 <__handle_page_fault+0xc4>
    80001030:	04846413          	ori	s0,s0,72
    80001034:	bf41                	j	80000fc4 <__handle_page_fault+0xc4>
    80001036:	0c600413          	li	s0,198
    8000103a:	bfd5                	j	8000102e <__handle_page_fault+0x12e>
    8000103c:	05300793          	li	a5,83
    80001040:	b765                	j	80000fe8 <__handle_page_fault+0xe8>
    80001042:	6605                	lui	a2,0x1
    80001044:	4581                	li	a1,0
    80001046:	854a                	mv	a0,s2
    80001048:	20e070ef          	jal	ra,80008256 <memset>
    8000104c:	bf35                	j	80000f88 <__handle_page_fault+0x88>
    8000104e:	8e09                	sub	a2,a2,a0
    80001050:	4581                	li	a1,0
    80001052:	954a                	add	a0,a0,s2
    80001054:	202070ef          	jal	ra,80008256 <memset>
    80001058:	bf05                	j	80000f88 <__handle_page_fault+0x88>
    8000105a:	557d                	li	a0,-1
    8000105c:	bf61                	j	80000ff4 <__handle_page_fault+0xf4>
    8000105e:	00008517          	auipc	a0,0x8
    80001062:	38a50513          	addi	a0,a0,906 # 800093e8 <softfloat_countLeadingZeros8+0x3a0>
    80001066:	dc1ff0ef          	jal	ra,80000e26 <kassert_fail>

000000008000106a <__do_munmap>:
    8000106a:	7179                	addi	sp,sp,-48
    8000106c:	e84a                	sd	s2,16(sp)
    8000106e:	f406                	sd	ra,40(sp)
    80001070:	f022                	sd	s0,32(sp)
    80001072:	ec26                	sd	s1,24(sp)
    80001074:	e44e                	sd	s3,8(sp)
    80001076:	00b50933          	add	s2,a0,a1
    8000107a:	03257c63          	bgeu	a0,s2,800010b2 <__do_munmap+0x48>
    8000107e:	84aa                	mv	s1,a0
    80001080:	6985                	lui	s3,0x1
    80001082:	8526                	mv	a0,s1
    80001084:	4581                	li	a1,0
    80001086:	dfdff0ef          	jal	ra,80000e82 <__walk_internal>
    8000108a:	842a                	mv	s0,a0
    8000108c:	94ce                	add	s1,s1,s3
    8000108e:	c105                	beqz	a0,800010ae <__do_munmap+0x44>
    80001090:	611c                	ld	a5,0(a0)
    80001092:	0017f713          	andi	a4,a5,1
    80001096:	cf81                	beqz	a5,800010ae <__do_munmap+0x44>
    80001098:	eb09                	bnez	a4,800010aa <__do_munmap+0x40>
    8000109a:	5398                	lw	a4,32(a5)
    8000109c:	6b88                	ld	a0,16(a5)
    8000109e:	377d                	addiw	a4,a4,-1
    800010a0:	d398                	sw	a4,32(a5)
    800010a2:	e701                	bnez	a4,800010aa <__do_munmap+0x40>
    800010a4:	c119                	beqz	a0,800010aa <__do_munmap+0x40>
    800010a6:	dbeff0ef          	jal	ra,80000664 <file_decref>
    800010aa:	00043023          	sd	zero,0(s0)
    800010ae:	fd24eae3          	bltu	s1,s2,80001082 <__do_munmap+0x18>
    800010b2:	12000073          	sfence.vma
    800010b6:	70a2                	ld	ra,40(sp)
    800010b8:	7402                	ld	s0,32(sp)
    800010ba:	64e2                	ld	s1,24(sp)
    800010bc:	6942                	ld	s2,16(sp)
    800010be:	69a2                	ld	s3,8(sp)
    800010c0:	6145                	addi	sp,sp,48
    800010c2:	8082                	ret

00000000800010c4 <__valid_user_range>:
    800010c4:	95aa                	add	a1,a1,a0
    800010c6:	00a5ec63          	bltu	a1,a0,800010de <__valid_user_range+0x1a>
    800010ca:	00014517          	auipc	a0,0x14
    800010ce:	fde53503          	ld	a0,-34(a0) # 800150a8 <current+0x48>
    800010d2:	00b53533          	sltu	a0,a0,a1
    800010d6:	00154513          	xori	a0,a0,1
    800010da:	2501                	sext.w	a0,a0
    800010dc:	8082                	ret
    800010de:	4501                	li	a0,0
    800010e0:	8082                	ret

00000000800010e2 <handle_page_fault>:
    800010e2:	1141                	addi	sp,sp,-16
    800010e4:	e406                	sd	ra,8(sp)
    800010e6:	00014797          	auipc	a5,0x14
    800010ea:	f6278793          	addi	a5,a5,-158 # 80015048 <vm_lock>
    800010ee:	56fd                	li	a3,-1
    800010f0:	4398                	lw	a4,0(a5)
    800010f2:	2701                	sext.w	a4,a4
    800010f4:	ff75                	bnez	a4,800010f0 <handle_page_fault+0xe>
    800010f6:	8736                	mv	a4,a3
    800010f8:	0ce7a72f          	amoswap.w.aq	a4,a4,(a5)
    800010fc:	2701                	sext.w	a4,a4
    800010fe:	0ff0000f          	fence
    80001102:	f77d                	bnez	a4,800010f0 <handle_page_fault+0xe>
    80001104:	dfdff0ef          	jal	ra,80000f00 <__handle_page_fault>
    80001108:	0ff0000f          	fence
    8000110c:	60a2                	ld	ra,8(sp)
    8000110e:	00014797          	auipc	a5,0x14
    80001112:	f207ad23          	sw	zero,-198(a5) # 80015048 <vm_lock>
    80001116:	0141                	addi	sp,sp,16
    80001118:	8082                	ret

000000008000111a <__do_mmap>:
    8000111a:	7159                	addi	sp,sp,-112
    8000111c:	eca6                	sd	s1,88(sp)
    8000111e:	fff58493          	addi	s1,a1,-1
    80001122:	f0a2                	sd	s0,96(sp)
    80001124:	e8ca                	sd	s2,80(sp)
    80001126:	e0d2                	sd	s4,64(sp)
    80001128:	fc56                	sd	s5,56(sp)
    8000112a:	f85a                	sd	s6,48(sp)
    8000112c:	8ab6                	mv	s5,a3
    8000112e:	80b1                	srli	s1,s1,0xc
    80001130:	f486                	sd	ra,104(sp)
    80001132:	e4ce                	sd	s3,72(sp)
    80001134:	f45e                	sd	s7,40(sp)
    80001136:	f062                	sd	s8,32(sp)
    80001138:	ec66                	sd	s9,24(sp)
    8000113a:	e86a                	sd	s10,16(sp)
    8000113c:	e46e                	sd	s11,8(sp)
    8000113e:	8ac1                	andi	a3,a3,16
    80001140:	8b2e                	mv	s6,a1
    80001142:	8a32                	mv	s4,a2
    80001144:	843a                	mv	s0,a4
    80001146:	893e                	mv	s2,a5
    80001148:	0485                	addi	s1,s1,1
    8000114a:	10068463          	beqz	a3,80001252 <__do_mmap+0x138>
    8000114e:	03451793          	slli	a5,a0,0x34
    80001152:	eff9                	bnez	a5,80001230 <__do_mmap+0x116>
    80001154:	00a587b3          	add	a5,a1,a0
    80001158:	0ca7ec63          	bltu	a5,a0,80001230 <__do_mmap+0x116>
    8000115c:	00014717          	auipc	a4,0x14
    80001160:	f4c73703          	ld	a4,-180(a4) # 800150a8 <current+0x48>
    80001164:	89aa                	mv	s3,a0
    80001166:	0cf76563          	bltu	a4,a5,80001230 <__do_mmap+0x116>
    8000116a:	00014b97          	auipc	s7,0x14
    8000116e:	ed6b8b93          	addi	s7,s7,-298 # 80015040 <vmrs>
    80001172:	000bb783          	ld	a5,0(s7)
    80001176:	00048c1b          	sext.w	s8,s1
    8000117a:	12078c63          	beqz	a5,800012b2 <__do_mmap+0x198>
    8000117e:	0ff0000f          	fence
    80001182:	000bb483          	ld	s1,0(s7)
    80001186:	6685                	lui	a3,0x1
    80001188:	16c1                	addi	a3,a3,-16
    8000118a:	96a6                	add	a3,a3,s1
    8000118c:	a029                	j	80001196 <__do_mmap+0x7c>
    8000118e:	02848493          	addi	s1,s1,40
    80001192:	08d48f63          	beq	s1,a3,80001230 <__do_mmap+0x116>
    80001196:	5088                	lw	a0,32(s1)
    80001198:	f97d                	bnez	a0,8000118e <__do_mmap+0x74>
    8000119a:	c401                	beqz	s0,800011a2 <__do_mmap+0x88>
    8000119c:	8522                	mv	a0,s0
    8000119e:	ca2ff0ef          	jal	ra,80000640 <file_incref>
    800011a2:	0134b023          	sd	s3,0(s1)
    800011a6:	0164b423          	sd	s6,8(s1)
    800011aa:	e880                	sd	s0,16(s1)
    800011ac:	0124bc23          	sd	s2,24(s1)
    800011b0:	0384a023          	sw	s8,32(s1)
    800011b4:	0344a223          	sw	s4,36(s1)
    800011b8:	cca5                	beqz	s1,80001230 <__do_mmap+0x116>
    800011ba:	9b4e                	add	s6,s6,s3
    800011bc:	894e                	mv	s2,s3
    800011be:	0169e863          	bltu	s3,s6,800011ce <__do_mmap+0xb4>
    800011c2:	a885                	j	80001232 <__do_mmap+0x118>
    800011c4:	6785                	lui	a5,0x1
    800011c6:	e004                	sd	s1,0(s0)
    800011c8:	993e                	add	s2,s2,a5
    800011ca:	03697463          	bgeu	s2,s6,800011f2 <__do_mmap+0xd8>
    800011ce:	4585                	li	a1,1
    800011d0:	854a                	mv	a0,s2
    800011d2:	cb1ff0ef          	jal	ra,80000e82 <__walk_internal>
    800011d6:	842a                	mv	s0,a0
    800011d8:	10050d63          	beqz	a0,800012f2 <__do_mmap+0x1d8>
    800011dc:	611c                	ld	a5,0(a0)
    800011de:	d3fd                	beqz	a5,800011c4 <__do_mmap+0xaa>
    800011e0:	854a                	mv	a0,s2
    800011e2:	6585                	lui	a1,0x1
    800011e4:	e87ff0ef          	jal	ra,8000106a <__do_munmap>
    800011e8:	6785                	lui	a5,0x1
    800011ea:	e004                	sd	s1,0(s0)
    800011ec:	993e                	add	s2,s2,a5
    800011ee:	ff6960e3          	bltu	s2,s6,800011ce <__do_mmap+0xb4>
    800011f2:	0000a797          	auipc	a5,0xa
    800011f6:	2b27a783          	lw	a5,690(a5) # 8000b4a4 <demand_paging>
    800011fa:	844e                	mv	s0,s3
    800011fc:	c789                	beqz	a5,80001206 <__do_mmap+0xec>
    800011fe:	030a9793          	slli	a5,s5,0x30
    80001202:	0207d863          	bgez	a5,80001232 <__do_mmap+0x118>
    80001206:	6485                	lui	s1,0x1
    80001208:	a021                	j	80001210 <__do_mmap+0xf6>
    8000120a:	9426                	add	s0,s0,s1
    8000120c:	03647363          	bgeu	s0,s6,80001232 <__do_mmap+0x118>
    80001210:	85d2                	mv	a1,s4
    80001212:	8522                	mv	a0,s0
    80001214:	cedff0ef          	jal	ra,80000f00 <__handle_page_fault>
    80001218:	d96d                	beqz	a0,8000120a <__do_mmap+0xf0>
    8000121a:	00008517          	auipc	a0,0x8
    8000121e:	1de50513          	addi	a0,a0,478 # 800093f8 <softfloat_countLeadingZeros8+0x3b0>
    80001222:	c05ff0ef          	jal	ra,80000e26 <kassert_fail>
    80001226:	99e6                	add	s3,s3,s9
    80001228:	073dea63          	bltu	s11,s3,8000129c <__do_mmap+0x182>
    8000122c:	f2099fe3          	bnez	s3,8000116a <__do_mmap+0x50>
    80001230:	59fd                	li	s3,-1
    80001232:	70a6                	ld	ra,104(sp)
    80001234:	7406                	ld	s0,96(sp)
    80001236:	64e6                	ld	s1,88(sp)
    80001238:	6946                	ld	s2,80(sp)
    8000123a:	6a06                	ld	s4,64(sp)
    8000123c:	7ae2                	ld	s5,56(sp)
    8000123e:	7b42                	ld	s6,48(sp)
    80001240:	7ba2                	ld	s7,40(sp)
    80001242:	7c02                	ld	s8,32(sp)
    80001244:	6ce2                	ld	s9,24(sp)
    80001246:	6d42                	ld	s10,16(sp)
    80001248:	6da2                	ld	s11,8(sp)
    8000124a:	854e                	mv	a0,s3
    8000124c:	69a6                	ld	s3,72(sp)
    8000124e:	6165                	addi	sp,sp,112
    80001250:	8082                	ret
    80001252:	00014797          	auipc	a5,0x14
    80001256:	e0e78793          	addi	a5,a5,-498 # 80015060 <current>
    8000125a:	0487bc03          	ld	s8,72(a5)
    8000125e:	0387bd83          	ld	s11,56(a5)
    80001262:	00c49b93          	slli	s7,s1,0xc
    80001266:	417c0c33          	sub	s8,s8,s7
    8000126a:	fdbc63e3          	bltu	s8,s11,80001230 <__do_mmap+0x116>
    8000126e:	77fd                	lui	a5,0xfffff
    80001270:	4581                	li	a1,0
    80001272:	856e                	mv	a0,s11
    80001274:	9bbe                	add	s7,s7,a5
    80001276:	7cfd                	lui	s9,0xfffff
    80001278:	6d05                	lui	s10,0x1
    8000127a:	c09ff0ef          	jal	ra,80000e82 <__walk_internal>
    8000127e:	c919                	beqz	a0,80001294 <__do_mmap+0x17a>
    80001280:	611c                	ld	a5,0(a0)
    80001282:	cb89                	beqz	a5,80001294 <__do_mmap+0x17a>
    80001284:	9dea                	add	s11,s11,s10
    80001286:	fbbc65e3          	bltu	s8,s11,80001230 <__do_mmap+0x116>
    8000128a:	4581                	li	a1,0
    8000128c:	856e                	mv	a0,s11
    8000128e:	bf5ff0ef          	jal	ra,80000e82 <__walk_internal>
    80001292:	f57d                	bnez	a0,80001280 <__do_mmap+0x166>
    80001294:	01bb89b3          	add	s3,s7,s11
    80001298:	f93dfae3          	bgeu	s11,s3,8000122c <__do_mmap+0x112>
    8000129c:	4581                	li	a1,0
    8000129e:	854e                	mv	a0,s3
    800012a0:	be3ff0ef          	jal	ra,80000e82 <__walk_internal>
    800012a4:	d149                	beqz	a0,80001226 <__do_mmap+0x10c>
    800012a6:	611c                	ld	a5,0(a0)
    800012a8:	dfbd                	beqz	a5,80001226 <__do_mmap+0x10c>
    800012aa:	ed3df0e3          	bgeu	s11,s3,8000116a <__do_mmap+0x50>
    800012ae:	8dce                	mv	s11,s3
    800012b0:	bfd1                	j	80001284 <__do_mmap+0x16a>
    800012b2:	00014797          	auipc	a5,0x14
    800012b6:	d9678793          	addi	a5,a5,-618 # 80015048 <vm_lock>
    800012ba:	56fd                	li	a3,-1
    800012bc:	4388                	lw	a0,0(a5)
    800012be:	2501                	sext.w	a0,a0
    800012c0:	fd75                	bnez	a0,800012bc <__do_mmap+0x1a2>
    800012c2:	8736                	mv	a4,a3
    800012c4:	0ce7a72f          	amoswap.w.aq	a4,a4,(a5)
    800012c8:	2701                	sext.w	a4,a4
    800012ca:	0ff0000f          	fence
    800012ce:	f77d                	bnez	a4,800012bc <__do_mmap+0x1a2>
    800012d0:	000bb783          	ld	a5,0(s7)
    800012d4:	cb81                	beqz	a5,800012e4 <__do_mmap+0x1ca>
    800012d6:	0ff0000f          	fence
    800012da:	00014797          	auipc	a5,0x14
    800012de:	d607a723          	sw	zero,-658(a5) # 80015048 <vm_lock>
    800012e2:	bd71                	j	8000117e <__do_mmap+0x64>
    800012e4:	b57ff0ef          	jal	ra,80000e3a <__page_alloc>
    800012e8:	0ff0000f          	fence
    800012ec:	00abb023          	sd	a0,0(s7)
    800012f0:	b7dd                	j	800012d6 <__do_mmap+0x1bc>
    800012f2:	00008517          	auipc	a0,0x8
    800012f6:	0fe50513          	addi	a0,a0,254 # 800093f0 <softfloat_countLeadingZeros8+0x3a8>
    800012fa:	b2dff0ef          	jal	ra,80000e26 <kassert_fail>

00000000800012fe <do_munmap>:
    800012fe:	1141                	addi	sp,sp,-16
    80001300:	e406                	sd	ra,8(sp)
    80001302:	e022                	sd	s0,0(sp)
    80001304:	03451793          	slli	a5,a0,0x34
    80001308:	eba1                	bnez	a5,80001358 <do_munmap+0x5a>
    8000130a:	00b507b3          	add	a5,a0,a1
    8000130e:	5429                	li	s0,-22
    80001310:	02a7ef63          	bltu	a5,a0,8000134e <do_munmap+0x50>
    80001314:	00014717          	auipc	a4,0x14
    80001318:	d9473703          	ld	a4,-620(a4) # 800150a8 <current+0x48>
    8000131c:	02f76963          	bltu	a4,a5,8000134e <do_munmap+0x50>
    80001320:	00014717          	auipc	a4,0x14
    80001324:	d2870713          	addi	a4,a4,-728 # 80015048 <vm_lock>
    80001328:	56fd                	li	a3,-1
    8000132a:	4300                	lw	s0,0(a4)
    8000132c:	2401                	sext.w	s0,s0
    8000132e:	fc75                	bnez	s0,8000132a <do_munmap+0x2c>
    80001330:	87b6                	mv	a5,a3
    80001332:	0cf727af          	amoswap.w.aq	a5,a5,(a4)
    80001336:	2781                	sext.w	a5,a5
    80001338:	0ff0000f          	fence
    8000133c:	f7fd                	bnez	a5,8000132a <do_munmap+0x2c>
    8000133e:	d2dff0ef          	jal	ra,8000106a <__do_munmap>
    80001342:	0ff0000f          	fence
    80001346:	00014797          	auipc	a5,0x14
    8000134a:	d007a123          	sw	zero,-766(a5) # 80015048 <vm_lock>
    8000134e:	60a2                	ld	ra,8(sp)
    80001350:	8522                	mv	a0,s0
    80001352:	6402                	ld	s0,0(sp)
    80001354:	0141                	addi	sp,sp,16
    80001356:	8082                	ret
    80001358:	5429                	li	s0,-22
    8000135a:	bfd5                	j	8000134e <do_munmap+0x50>

000000008000135c <do_mmap>:
    8000135c:	7139                	addi	sp,sp,-64
    8000135e:	f822                	sd	s0,48(sp)
    80001360:	fc06                	sd	ra,56(sp)
    80001362:	f426                	sd	s1,40(sp)
    80001364:	f04a                	sd	s2,32(sp)
    80001366:	0026f813          	andi	a6,a3,2
    8000136a:	5429                	li	s0,-22
    8000136c:	08080163          	beqz	a6,800013ee <do_mmap+0x92>
    80001370:	cdbd                	beqz	a1,800013ee <do_mmap+0x92>
    80001372:	84aa                	mv	s1,a0
    80001374:	03479513          	slli	a0,a5,0x34
    80001378:	e93d                	bnez	a0,800013ee <do_mmap+0x92>
    8000137a:	0206f513          	andi	a0,a3,32
    8000137e:	ed3d                	bnez	a0,800013fc <do_mmap+0xa0>
    80001380:	853a                	mv	a0,a4
    80001382:	ec3e                	sd	a5,24(sp)
    80001384:	e836                	sd	a3,16(sp)
    80001386:	e432                	sd	a2,8(sp)
    80001388:	e02e                	sd	a1,0(sp)
    8000138a:	b7eff0ef          	jal	ra,80000708 <file_get>
    8000138e:	6582                	ld	a1,0(sp)
    80001390:	6622                	ld	a2,8(sp)
    80001392:	66c2                	ld	a3,16(sp)
    80001394:	67e2                	ld	a5,24(sp)
    80001396:	892a                	mv	s2,a0
    80001398:	c525                	beqz	a0,80001400 <do_mmap+0xa4>
    8000139a:	00014897          	auipc	a7,0x14
    8000139e:	cae88893          	addi	a7,a7,-850 # 80015048 <vm_lock>
    800013a2:	577d                	li	a4,-1
    800013a4:	0008a803          	lw	a6,0(a7)
    800013a8:	2801                	sext.w	a6,a6
    800013aa:	fe081de3          	bnez	a6,800013a4 <do_mmap+0x48>
    800013ae:	883a                	mv	a6,a4
    800013b0:	0d08a82f          	amoswap.w.aq	a6,a6,(a7)
    800013b4:	2801                	sext.w	a6,a6
    800013b6:	0ff0000f          	fence
    800013ba:	fe0815e3          	bnez	a6,800013a4 <do_mmap+0x48>
    800013be:	874a                	mv	a4,s2
    800013c0:	8526                	mv	a0,s1
    800013c2:	d59ff0ef          	jal	ra,8000111a <__do_mmap>
    800013c6:	00014797          	auipc	a5,0x14
    800013ca:	c9a78793          	addi	a5,a5,-870 # 80015060 <current>
    800013ce:	63b8                	ld	a4,64(a5)
    800013d0:	842a                	mv	s0,a0
    800013d2:	00e57363          	bgeu	a0,a4,800013d8 <do_mmap+0x7c>
    800013d6:	e3a8                	sd	a0,64(a5)
    800013d8:	0ff0000f          	fence
    800013dc:	00014797          	auipc	a5,0x14
    800013e0:	c607a623          	sw	zero,-916(a5) # 80015048 <vm_lock>
    800013e4:	00090563          	beqz	s2,800013ee <do_mmap+0x92>
    800013e8:	854a                	mv	a0,s2
    800013ea:	a7aff0ef          	jal	ra,80000664 <file_decref>
    800013ee:	70e2                	ld	ra,56(sp)
    800013f0:	8522                	mv	a0,s0
    800013f2:	7442                	ld	s0,48(sp)
    800013f4:	74a2                	ld	s1,40(sp)
    800013f6:	7902                	ld	s2,32(sp)
    800013f8:	6121                	addi	sp,sp,64
    800013fa:	8082                	ret
    800013fc:	4901                	li	s2,0
    800013fe:	bf71                	j	8000139a <do_mmap+0x3e>
    80001400:	545d                	li	s0,-9
    80001402:	b7f5                	j	800013ee <do_mmap+0x92>

0000000080001404 <__do_brk>:
    80001404:	1101                	addi	sp,sp,-32
    80001406:	e426                	sd	s1,8(sp)
    80001408:	00014497          	auipc	s1,0x14
    8000140c:	c5848493          	addi	s1,s1,-936 # 80015060 <current>
    80001410:	789c                	ld	a5,48(s1)
    80001412:	e04a                	sd	s2,0(sp)
    80001414:	ec06                	sd	ra,24(sp)
    80001416:	e822                	sd	s0,16(sp)
    80001418:	893e                	mv	s2,a5
    8000141a:	00f56663          	bltu	a0,a5,80001426 <__do_brk+0x22>
    8000141e:	0404b903          	ld	s2,64(s1)
    80001422:	03256b63          	bltu	a0,s2,80001458 <__do_brk+0x54>
    80001426:	7c88                	ld	a0,56(s1)
    80001428:	e519                	bnez	a0,80001436 <__do_brk+0x32>
    8000142a:	fff78513          	addi	a0,a5,-1
    8000142e:	8131                	srli	a0,a0,0xc
    80001430:	0505                	addi	a0,a0,1
    80001432:	0532                	slli	a0,a0,0xc
    80001434:	fc88                	sd	a0,56(s1)
    80001436:	fff90413          	addi	s0,s2,-1
    8000143a:	8031                	srli	s0,s0,0xc
    8000143c:	0405                	addi	s0,s0,1
    8000143e:	0432                	slli	s0,s0,0xc
    80001440:	04a46063          	bltu	s0,a0,80001480 <__do_brk+0x7c>
    80001444:	00856c63          	bltu	a0,s0,8000145c <__do_brk+0x58>
    80001448:	fc80                	sd	s0,56(s1)
    8000144a:	60e2                	ld	ra,24(sp)
    8000144c:	6442                	ld	s0,16(sp)
    8000144e:	64a2                	ld	s1,8(sp)
    80001450:	854a                	mv	a0,s2
    80001452:	6902                	ld	s2,0(sp)
    80001454:	6105                	addi	sp,sp,32
    80001456:	8082                	ret
    80001458:	892a                	mv	s2,a0
    8000145a:	b7f1                	j	80001426 <__do_brk+0x22>
    8000145c:	4781                	li	a5,0
    8000145e:	4701                	li	a4,0
    80001460:	03200693          	li	a3,50
    80001464:	567d                	li	a2,-1
    80001466:	40a405b3          	sub	a1,s0,a0
    8000146a:	cb1ff0ef          	jal	ra,8000111a <__do_mmap>
    8000146e:	7c9c                	ld	a5,56(s1)
    80001470:	fcf50ce3          	beq	a0,a5,80001448 <__do_brk+0x44>
    80001474:	00008517          	auipc	a0,0x8
    80001478:	fac50513          	addi	a0,a0,-84 # 80009420 <softfloat_countLeadingZeros8+0x3d8>
    8000147c:	9abff0ef          	jal	ra,80000e26 <kassert_fail>
    80001480:	408505b3          	sub	a1,a0,s0
    80001484:	8522                	mv	a0,s0
    80001486:	be5ff0ef          	jal	ra,8000106a <__do_munmap>
    8000148a:	60e2                	ld	ra,24(sp)
    8000148c:	fc80                	sd	s0,56(s1)
    8000148e:	6442                	ld	s0,16(sp)
    80001490:	64a2                	ld	s1,8(sp)
    80001492:	854a                	mv	a0,s2
    80001494:	6902                	ld	s2,0(sp)
    80001496:	6105                	addi	sp,sp,32
    80001498:	8082                	ret

000000008000149a <do_brk>:
    8000149a:	1141                	addi	sp,sp,-16
    8000149c:	e406                	sd	ra,8(sp)
    8000149e:	00014797          	auipc	a5,0x14
    800014a2:	baa78793          	addi	a5,a5,-1110 # 80015048 <vm_lock>
    800014a6:	56fd                	li	a3,-1
    800014a8:	4398                	lw	a4,0(a5)
    800014aa:	2701                	sext.w	a4,a4
    800014ac:	ff75                	bnez	a4,800014a8 <do_brk+0xe>
    800014ae:	8736                	mv	a4,a3
    800014b0:	0ce7a72f          	amoswap.w.aq	a4,a4,(a5)
    800014b4:	2701                	sext.w	a4,a4
    800014b6:	0ff0000f          	fence
    800014ba:	f77d                	bnez	a4,800014a8 <do_brk+0xe>
    800014bc:	f49ff0ef          	jal	ra,80001404 <__do_brk>
    800014c0:	0ff0000f          	fence
    800014c4:	60a2                	ld	ra,8(sp)
    800014c6:	00014797          	auipc	a5,0x14
    800014ca:	b807a123          	sw	zero,-1150(a5) # 80015048 <vm_lock>
    800014ce:	0141                	addi	sp,sp,16
    800014d0:	8082                	ret

00000000800014d2 <do_mremap>:
    800014d2:	fa800513          	li	a0,-88
    800014d6:	8082                	ret

00000000800014d8 <do_mprotect>:
    800014d8:	715d                	addi	sp,sp,-80
    800014da:	ec56                	sd	s5,24(sp)
    800014dc:	03451a93          	slli	s5,a0,0x34
    800014e0:	e486                	sd	ra,72(sp)
    800014e2:	e0a2                	sd	s0,64(sp)
    800014e4:	fc26                	sd	s1,56(sp)
    800014e6:	f84a                	sd	s2,48(sp)
    800014e8:	f44e                	sd	s3,40(sp)
    800014ea:	f052                	sd	s4,32(sp)
    800014ec:	e85a                	sd	s6,16(sp)
    800014ee:	e45e                	sd	s7,8(sp)
    800014f0:	e062                	sd	s8,0(sp)
    800014f2:	034ada93          	srli	s5,s5,0x34
    800014f6:	120a9b63          	bnez	s5,8000162c <do_mprotect+0x154>
    800014fa:	8c2a                	mv	s8,a0
    800014fc:	8432                	mv	s0,a2
    800014fe:	00014717          	auipc	a4,0x14
    80001502:	b4a70713          	addi	a4,a4,-1206 # 80015048 <vm_lock>
    80001506:	56fd                	li	a3,-1
    80001508:	431c                	lw	a5,0(a4)
    8000150a:	2781                	sext.w	a5,a5
    8000150c:	fff5                	bnez	a5,80001508 <do_mprotect+0x30>
    8000150e:	87b6                	mv	a5,a3
    80001510:	0cf727af          	amoswap.w.aq	a5,a5,(a4)
    80001514:	2781                	sext.w	a5,a5
    80001516:	0ff0000f          	fence
    8000151a:	f7fd                	bnez	a5,80001508 <do_mprotect+0x30>
    8000151c:	00bc04b3          	add	s1,s8,a1
    80001520:	089c7a63          	bgeu	s8,s1,800015b4 <do_mprotect+0xdc>
    80001524:	00147a13          	andi	s4,s0,1
    80001528:	4b01                	li	s6,0
    8000152a:	0e0a1c63          	bnez	s4,80001622 <do_mprotect+0x14a>
    8000152e:	00247913          	andi	s2,s0,2
    80001532:	00447993          	andi	s3,s0,4
    80001536:	084b6b93          	ori	s7,s6,132
    8000153a:	2901                	sext.w	s2,s2
    8000153c:	2981                	sext.w	s3,s3
    8000153e:	0ccb6b13          	ori	s6,s6,204
    80001542:	a819                	j	80001558 <do_mprotect+0x80>
    80001544:	53d8                	lw	a4,36(a5)
    80001546:	00e466b3          	or	a3,s0,a4
    8000154a:	0ce69f63          	bne	a3,a4,80001628 <do_mprotect+0x150>
    8000154e:	d3c0                	sw	s0,36(a5)
    80001550:	6785                	lui	a5,0x1
    80001552:	9c3e                	add	s8,s8,a5
    80001554:	069c7063          	bgeu	s8,s1,800015b4 <do_mprotect+0xdc>
    80001558:	4581                	li	a1,0
    8000155a:	8562                	mv	a0,s8
    8000155c:	927ff0ef          	jal	ra,80000e82 <__walk_internal>
    80001560:	c961                	beqz	a0,80001630 <do_mprotect+0x158>
    80001562:	611c                	ld	a5,0(a0)
    80001564:	c7f1                	beqz	a5,80001630 <do_mprotect+0x158>
    80001566:	0017f713          	andi	a4,a5,1
    8000156a:	df69                	beqz	a4,80001544 <do_mprotect+0x6c>
    8000156c:	0107f713          	andi	a4,a5,16
    80001570:	cf45                	beqz	a4,80001628 <do_mprotect+0x150>
    80001572:	000a0563          	beqz	s4,8000157c <do_mprotect+0xa4>
    80001576:	0027f713          	andi	a4,a5,2
    8000157a:	c75d                	beqz	a4,80001628 <do_mprotect+0x150>
    8000157c:	00090563          	beqz	s2,80001586 <do_mprotect+0xae>
    80001580:	0047f713          	andi	a4,a5,4
    80001584:	c355                	beqz	a4,80001628 <do_mprotect+0x150>
    80001586:	00098563          	beqz	s3,80001590 <do_mprotect+0xb8>
    8000158a:	0087f713          	andi	a4,a5,8
    8000158e:	cf49                	beqz	a4,80001628 <do_mprotect+0x150>
    80001590:	060a1263          	bnez	s4,800015f4 <do_mprotect+0x11c>
    80001594:	04091563          	bnez	s2,800015de <do_mprotect+0x106>
    80001598:	04800713          	li	a4,72
    8000159c:	06098b63          	beqz	s3,80001612 <do_mprotect+0x13a>
    800015a0:	c007f793          	andi	a5,a5,-1024
    800015a4:	8fd9                	or	a5,a5,a4
    800015a6:	0117e793          	ori	a5,a5,17
    800015aa:	e11c                	sd	a5,0(a0)
    800015ac:	6785                	lui	a5,0x1
    800015ae:	9c3e                	add	s8,s8,a5
    800015b0:	fa9c64e3          	bltu	s8,s1,80001558 <do_mprotect+0x80>
    800015b4:	0ff0000f          	fence
    800015b8:	00014797          	auipc	a5,0x14
    800015bc:	a807a823          	sw	zero,-1392(a5) # 80015048 <vm_lock>
    800015c0:	12000073          	sfence.vma
    800015c4:	60a6                	ld	ra,72(sp)
    800015c6:	6406                	ld	s0,64(sp)
    800015c8:	74e2                	ld	s1,56(sp)
    800015ca:	7942                	ld	s2,48(sp)
    800015cc:	79a2                	ld	s3,40(sp)
    800015ce:	7a02                	ld	s4,32(sp)
    800015d0:	6b42                	ld	s6,16(sp)
    800015d2:	6ba2                	ld	s7,8(sp)
    800015d4:	6c02                	ld	s8,0(sp)
    800015d6:	8556                	mv	a0,s5
    800015d8:	6ae2                	ld	s5,24(sp)
    800015da:	6161                	addi	sp,sp,80
    800015dc:	8082                	ret
    800015de:	875e                	mv	a4,s7
    800015e0:	fc0980e3          	beqz	s3,800015a0 <do_mprotect+0xc8>
    800015e4:	875a                	mv	a4,s6
    800015e6:	c007f793          	andi	a5,a5,-1024
    800015ea:	8fd9                	or	a5,a5,a4
    800015ec:	0117e793          	ori	a5,a5,17
    800015f0:	e11c                	sd	a5,0(a0)
    800015f2:	bf6d                	j	800015ac <do_mprotect+0xd4>
    800015f4:	fe0915e3          	bnez	s2,800015de <do_mprotect+0x106>
    800015f8:	04a00713          	li	a4,74
    800015fc:	fa0992e3          	bnez	s3,800015a0 <do_mprotect+0xc8>
    80001600:	04200713          	li	a4,66
    80001604:	c007f793          	andi	a5,a5,-1024
    80001608:	8fd9                	or	a5,a5,a4
    8000160a:	0117e793          	ori	a5,a5,17
    8000160e:	e11c                	sd	a5,0(a0)
    80001610:	bf71                	j	800015ac <do_mprotect+0xd4>
    80001612:	4709                	li	a4,2
    80001614:	c007f793          	andi	a5,a5,-1024
    80001618:	8fd9                	or	a5,a5,a4
    8000161a:	0117e793          	ori	a5,a5,17
    8000161e:	e11c                	sd	a5,0(a0)
    80001620:	b771                	j	800015ac <do_mprotect+0xd4>
    80001622:	04200b13          	li	s6,66
    80001626:	b721                	j	8000152e <do_mprotect+0x56>
    80001628:	5acd                	li	s5,-13
    8000162a:	b769                	j	800015b4 <do_mprotect+0xdc>
    8000162c:	5aa9                	li	s5,-22
    8000162e:	bf59                	j	800015c4 <do_mprotect+0xec>
    80001630:	5ad1                	li	s5,-12
    80001632:	b749                	j	800015b4 <do_mprotect+0xdc>

0000000080001634 <__map_kernel_range>:
    80001634:	715d                	addi	sp,sp,-80
    80001636:	e0a2                	sd	s0,64(sp)
    80001638:	fff60413          	addi	s0,a2,-1 # fff <MEM_START-0x7ffff001>
    8000163c:	8031                	srli	s0,s0,0xc
    8000163e:	0405                	addi	s0,s0,1
    80001640:	0432                	slli	s0,s0,0xc
    80001642:	f84a                	sd	s2,48(sp)
    80001644:	e486                	sd	ra,72(sp)
    80001646:	fc26                	sd	s1,56(sp)
    80001648:	f44e                	sd	s3,40(sp)
    8000164a:	f052                	sd	s4,32(sp)
    8000164c:	ec56                	sd	s5,24(sp)
    8000164e:	e85a                	sd	s6,16(sp)
    80001650:	e45e                	sd	s7,8(sp)
    80001652:	8031                	srli	s0,s0,0xc
    80001654:	40a58933          	sub	s2,a1,a0
    80001658:	cc2d                	beqz	s0,800016d2 <__map_kernel_range+0x9e>
    8000165a:	0016fa13          	andi	s4,a3,1
    8000165e:	8baa                	mv	s7,a0
    80001660:	4b01                	li	s6,0
    80001662:	080a1763          	bnez	s4,800016f0 <__map_kernel_range+0xbc>
    80001666:	0026f993          	andi	s3,a3,2
    8000166a:	0432                	slli	s0,s0,0xc
    8000166c:	8a91                	andi	a3,a3,4
    8000166e:	084b6a93          	ori	s5,s6,132
    80001672:	945e                	add	s0,s0,s7
    80001674:	2981                	sext.w	s3,s3
    80001676:	0006849b          	sext.w	s1,a3
    8000167a:	0ccb6b13          	ori	s6,s6,204
    8000167e:	a005                	j	8000169e <__map_kernel_range+0x6a>
    80001680:	06099463          	bnez	s3,800016e8 <__map_kernel_range+0xb4>
    80001684:	04800713          	li	a4,72
    80001688:	e091                	bnez	s1,8000168c <__map_kernel_range+0x58>
    8000168a:	4709                	li	a4,2
    8000168c:	07aa                	slli	a5,a5,0xa
    8000168e:	8fd9                	or	a5,a5,a4
    80001690:	0017e793          	ori	a5,a5,1
    80001694:	e11c                	sd	a5,0(a0)
    80001696:	6785                	lui	a5,0x1
    80001698:	9bbe                	add	s7,s7,a5
    8000169a:	028b8c63          	beq	s7,s0,800016d2 <__map_kernel_range+0x9e>
    8000169e:	4585                	li	a1,1
    800016a0:	855e                	mv	a0,s7
    800016a2:	fe0ff0ef          	jal	ra,80000e82 <__walk_internal>
    800016a6:	c921                	beqz	a0,800016f6 <__map_kernel_range+0xc2>
    800016a8:	017907b3          	add	a5,s2,s7
    800016ac:	83b1                	srli	a5,a5,0xc
    800016ae:	fc0a09e3          	beqz	s4,80001680 <__map_kernel_range+0x4c>
    800016b2:	02099b63          	bnez	s3,800016e8 <__map_kernel_range+0xb4>
    800016b6:	04a00713          	li	a4,74
    800016ba:	f8e9                	bnez	s1,8000168c <__map_kernel_range+0x58>
    800016bc:	04200713          	li	a4,66
    800016c0:	07aa                	slli	a5,a5,0xa
    800016c2:	8fd9                	or	a5,a5,a4
    800016c4:	0017e793          	ori	a5,a5,1
    800016c8:	e11c                	sd	a5,0(a0)
    800016ca:	6785                	lui	a5,0x1
    800016cc:	9bbe                	add	s7,s7,a5
    800016ce:	fc8b98e3          	bne	s7,s0,8000169e <__map_kernel_range+0x6a>
    800016d2:	60a6                	ld	ra,72(sp)
    800016d4:	6406                	ld	s0,64(sp)
    800016d6:	74e2                	ld	s1,56(sp)
    800016d8:	7942                	ld	s2,48(sp)
    800016da:	79a2                	ld	s3,40(sp)
    800016dc:	7a02                	ld	s4,32(sp)
    800016de:	6ae2                	ld	s5,24(sp)
    800016e0:	6b42                	ld	s6,16(sp)
    800016e2:	6ba2                	ld	s7,8(sp)
    800016e4:	6161                	addi	sp,sp,80
    800016e6:	8082                	ret
    800016e8:	8756                	mv	a4,s5
    800016ea:	d0cd                	beqz	s1,8000168c <__map_kernel_range+0x58>
    800016ec:	875a                	mv	a4,s6
    800016ee:	bf79                	j	8000168c <__map_kernel_range+0x58>
    800016f0:	04200b13          	li	s6,66
    800016f4:	bf8d                	j	80001666 <__map_kernel_range+0x32>
    800016f6:	00008517          	auipc	a0,0x8
    800016fa:	cfa50513          	addi	a0,a0,-774 # 800093f0 <softfloat_countLeadingZeros8+0x3a8>
    800016fe:	f28ff0ef          	jal	ra,80000e26 <kassert_fail>

0000000080001702 <populate_mapping>:
    80001702:	77fd                	lui	a5,0xfffff
    80001704:	8a09                	andi	a2,a2,2
    80001706:	8fe9                	and	a5,a5,a0
    80001708:	95aa                	add	a1,a1,a0
    8000170a:	2601                	sext.w	a2,a2
    8000170c:	6705                	lui	a4,0x1
    8000170e:	00b7f763          	bgeu	a5,a1,8000171c <populate_mapping+0x1a>
    80001712:	e611                	bnez	a2,8000171e <populate_mapping+0x1c>
    80001714:	4394                	lw	a3,0(a5)
    80001716:	97ba                	add	a5,a5,a4
    80001718:	feb7ede3          	bltu	a5,a1,80001712 <populate_mapping+0x10>
    8000171c:	8082                	ret
    8000171e:	0f50000f          	fence	iorw,ow
    80001722:	0407a02f          	amoadd.w.aq	zero,zero,(a5)
    80001726:	bfc5                	j	80001716 <populate_mapping+0x14>

0000000080001728 <pk_vm_init>:
    80001728:	7179                	addi	sp,sp,-48
    8000172a:	e052                	sd	s4,0(sp)
    8000172c:	00014a17          	auipc	s4,0x14
    80001730:	9bca0a13          	addi	s4,s4,-1604 # 800150e8 <mem_size>
    80001734:	f022                	sd	s0,32(sp)
    80001736:	000a3403          	ld	s0,0(s4)
    8000173a:	4785                	li	a5,1
    8000173c:	f406                	sd	ra,40(sp)
    8000173e:	ec26                	sd	s1,24(sp)
    80001740:	e84a                	sd	s2,16(sp)
    80001742:	e44e                	sd	s3,8(sp)
    80001744:	07fe                	slli	a5,a5,0x1f
    80001746:	0087f363          	bgeu	a5,s0,8000174c <pk_vm_init+0x24>
    8000174a:	843e                	mv	s0,a5
    8000174c:	008a3023          	sd	s0,0(s4)
    80001750:	01445713          	srli	a4,s0,0x14
    80001754:	47a1                	li	a5,8
    80001756:	00f77363          	bgeu	a4,a5,8000175c <pk_vm_init+0x34>
    8000175a:	4721                	li	a4,8
    8000175c:	00015797          	auipc	a5,0x15
    80001760:	8a378793          	addi	a5,a5,-1885 # 80015fff <hart_mask+0xec7>
    80001764:	83b1                	srli	a5,a5,0xc
    80001766:	0785                	addi	a5,a5,1
    80001768:	07b2                	slli	a5,a5,0xc
    8000176a:	00c71693          	slli	a3,a4,0xc
    8000176e:	96be                	add	a3,a3,a5
    80001770:	00014997          	auipc	s3,0x14
    80001774:	96098993          	addi	s3,s3,-1696 # 800150d0 <first_free_paddr>
    80001778:	00014617          	auipc	a2,0x14
    8000177c:	8ae63823          	sd	a4,-1872(a2) # 80015028 <free_pages>
    80001780:	00d9b023          	sd	a3,0(s3)
    80001784:	00014717          	auipc	a4,0x14
    80001788:	8af73a23          	sd	a5,-1868(a4) # 80015038 <first_free_page>
    8000178c:	eaeff0ef          	jal	ra,80000e3a <__page_alloc>
    80001790:	0009b703          	ld	a4,0(s3)
    80001794:	4485                	li	s1,1
    80001796:	01f49593          	slli	a1,s1,0x1f
    8000179a:	80000637          	lui	a2,0x80000
    8000179e:	87aa                	mv	a5,a0
    800017a0:	963a                	add	a2,a2,a4
    800017a2:	852e                	mv	a0,a1
    800017a4:	00014917          	auipc	s2,0x14
    800017a8:	95c90913          	addi	s2,s2,-1700 # 80015100 <root_page_table>
    800017ac:	469d                	li	a3,7
    800017ae:	00f93023          	sd	a5,0(s2)
    800017b2:	e83ff0ef          	jal	ra,80001634 <__map_kernel_range>
    800017b6:	000a3503          	ld	a0,0(s4)
    800017ba:	0009b703          	ld	a4,0(s3)
    800017be:	01f49793          	slli	a5,s1,0x1f
    800017c2:	953e                	add	a0,a0,a5
    800017c4:	8d19                	sub	a0,a0,a4
    800017c6:	00a7f363          	bgeu	a5,a0,800017cc <pk_vm_init+0xa4>
    800017ca:	853e                	mv	a0,a5
    800017cc:	00014497          	auipc	s1,0x14
    800017d0:	89448493          	addi	s1,s1,-1900 # 80015060 <current>
    800017d4:	6785                	lui	a5,0x1
    800017d6:	e0a8                	sd	a0,64(s1)
    800017d8:	e4a8                	sd	a0,72(s1)
    800017da:	8045                	srli	s0,s0,0x11
    800017dc:	80078793          	addi	a5,a5,-2048 # 800 <MEM_START-0x7ffff800>
    800017e0:	0087f363          	bgeu	a5,s0,800017e6 <pk_vm_init+0xbe>
    800017e4:	843e                	mv	s0,a5
    800017e6:	0432                	slli	s0,s0,0xc
    800017e8:	4701                	li	a4,0
    800017ea:	4781                	li	a5,0
    800017ec:	03200693          	li	a3,50
    800017f0:	461d                	li	a2,7
    800017f2:	85a2                	mv	a1,s0
    800017f4:	8d01                	sub	a0,a0,s0
    800017f6:	925ff0ef          	jal	ra,8000111a <__do_mmap>
    800017fa:	577d                	li	a4,-1
    800017fc:	02e50963          	beq	a0,a4,8000182e <pk_vm_init+0x106>
    80001800:	942a                	add	s0,s0,a0
    80001802:	e8a0                	sd	s0,80(s1)
    80001804:	12000073          	sfence.vma
    80001808:	00093783          	ld	a5,0(s2)
    8000180c:	177e                	slli	a4,a4,0x3f
    8000180e:	83b1                	srli	a5,a5,0xc
    80001810:	8fd9                	or	a5,a5,a4
    80001812:	18079073          	csrw	satp,a5
    80001816:	e24ff0ef          	jal	ra,80000e3a <__page_alloc>
    8000181a:	70a2                	ld	ra,40(sp)
    8000181c:	7402                	ld	s0,32(sp)
    8000181e:	6785                	lui	a5,0x1
    80001820:	64e2                	ld	s1,24(sp)
    80001822:	6942                	ld	s2,16(sp)
    80001824:	69a2                	ld	s3,8(sp)
    80001826:	6a02                	ld	s4,0(sp)
    80001828:	953e                	add	a0,a0,a5
    8000182a:	6145                	addi	sp,sp,48
    8000182c:	8082                	ret
    8000182e:	00008517          	auipc	a0,0x8
    80001832:	c6250513          	addi	a0,a0,-926 # 80009490 <softfloat_countLeadingZeros8+0x448>
    80001836:	df0ff0ef          	jal	ra,80000e26 <kassert_fail>
	...

000000008000183c <trap_entry>:
    8000183c:	14011173          	csrrw	sp,sscratch,sp
    80001840:	00011463          	bnez	sp,80001848 <trap_entry+0xc>
    80001844:	14002173          	csrr	sp,sscratch
    80001848:	7129                	addi	sp,sp,-320
    8000184a:	e406                	sd	ra,8(sp)
    8000184c:	ec0e                	sd	gp,24(sp)
    8000184e:	f012                	sd	tp,32(sp)
    80001850:	f416                	sd	t0,40(sp)
    80001852:	f81a                	sd	t1,48(sp)
    80001854:	fc1e                	sd	t2,56(sp)
    80001856:	e0a2                	sd	s0,64(sp)
    80001858:	e4a6                	sd	s1,72(sp)
    8000185a:	e8aa                	sd	a0,80(sp)
    8000185c:	ecae                	sd	a1,88(sp)
    8000185e:	f0b2                	sd	a2,96(sp)
    80001860:	f4b6                	sd	a3,104(sp)
    80001862:	f8ba                	sd	a4,112(sp)
    80001864:	fcbe                	sd	a5,120(sp)
    80001866:	e142                	sd	a6,128(sp)
    80001868:	e546                	sd	a7,136(sp)
    8000186a:	e94a                	sd	s2,144(sp)
    8000186c:	ed4e                	sd	s3,152(sp)
    8000186e:	f152                	sd	s4,160(sp)
    80001870:	f556                	sd	s5,168(sp)
    80001872:	f95a                	sd	s6,176(sp)
    80001874:	fd5e                	sd	s7,184(sp)
    80001876:	e1e2                	sd	s8,192(sp)
    80001878:	e5e6                	sd	s9,200(sp)
    8000187a:	e9ea                	sd	s10,208(sp)
    8000187c:	edee                	sd	s11,216(sp)
    8000187e:	f1f2                	sd	t3,224(sp)
    80001880:	f5f6                	sd	t4,232(sp)
    80001882:	f9fa                	sd	t5,240(sp)
    80001884:	fdfe                	sd	t6,248(sp)
    80001886:	140012f3          	csrrw	t0,sscratch,zero
    8000188a:	10002473          	csrr	s0,sstatus
    8000188e:	14102373          	csrr	t1,sepc
    80001892:	143023f3          	csrr	t2,stval
    80001896:	14202e73          	csrr	t3,scause
    8000189a:	e816                	sd	t0,16(sp)
    8000189c:	e222                	sd	s0,256(sp)
    8000189e:	e61a                	sd	t1,264(sp)
    800018a0:	ea1e                	sd	t2,272(sp)
    800018a2:	ee72                	sd	t3,280(sp)
    800018a4:	52fd                	li	t0,-1
    800018a6:	f216                	sd	t0,288(sp)
    800018a8:	850a                	mv	a0,sp
    800018aa:	264000ef          	jal	ra,80001b0e <handle_trap>
    800018ae:	850a                	mv	a0,sp
    800018b0:	10047413          	andi	s0,s0,256
    800018b4:	e401                	bnez	s0,800018bc <start_user>
    800018b6:	6131                	addi	sp,sp,320
    800018b8:	14011073          	csrw	sscratch,sp

00000000800018bc <start_user>:
    800018bc:	10053283          	ld	t0,256(a0)
    800018c0:	10853303          	ld	t1,264(a0)
    800018c4:	10029073          	csrw	sstatus,t0
    800018c8:	14131073          	csrw	sepc,t1
    800018cc:	00853083          	ld	ra,8(a0)
    800018d0:	01053103          	ld	sp,16(a0)
    800018d4:	01853183          	ld	gp,24(a0)
    800018d8:	02053203          	ld	tp,32(a0)
    800018dc:	02853283          	ld	t0,40(a0)
    800018e0:	03053303          	ld	t1,48(a0)
    800018e4:	03853383          	ld	t2,56(a0)
    800018e8:	6120                	ld	s0,64(a0)
    800018ea:	6524                	ld	s1,72(a0)
    800018ec:	6d2c                	ld	a1,88(a0)
    800018ee:	7130                	ld	a2,96(a0)
    800018f0:	7534                	ld	a3,104(a0)
    800018f2:	7938                	ld	a4,112(a0)
    800018f4:	7d3c                	ld	a5,120(a0)
    800018f6:	08053803          	ld	a6,128(a0)
    800018fa:	08853883          	ld	a7,136(a0)
    800018fe:	09053903          	ld	s2,144(a0)
    80001902:	09853983          	ld	s3,152(a0)
    80001906:	0a053a03          	ld	s4,160(a0)
    8000190a:	0a853a83          	ld	s5,168(a0)
    8000190e:	0b053b03          	ld	s6,176(a0)
    80001912:	0b853b83          	ld	s7,184(a0)
    80001916:	0c053c03          	ld	s8,192(a0)
    8000191a:	0c853c83          	ld	s9,200(a0)
    8000191e:	0d053d03          	ld	s10,208(a0)
    80001922:	0d853d83          	ld	s11,216(a0)
    80001926:	0e053e03          	ld	t3,224(a0)
    8000192a:	0e853e83          	ld	t4,232(a0)
    8000192e:	0f053f03          	ld	t5,240(a0)
    80001932:	0f853f83          	ld	t6,248(a0)
    80001936:	6928                	ld	a0,80(a0)
    80001938:	10200073          	sret
	...

000000008000193e <segfault>:
    8000193e:	1101                	addi	sp,sp,-32
    80001940:	e822                	sd	s0,16(sp)
    80001942:	e426                	sd	s1,8(sp)
    80001944:	e04a                	sd	s2,0(sp)
    80001946:	84ae                	mv	s1,a1
    80001948:	892a                	mv	s2,a0
    8000194a:	ec06                	sd	ra,24(sp)
    8000194c:	8432                	mv	s0,a2
    8000194e:	c08ff0ef          	jal	ra,80000d56 <dump_tf>
    80001952:	10093783          	ld	a5,256(s2)
    80001956:	00008597          	auipc	a1,0x8
    8000195a:	b6258593          	addi	a1,a1,-1182 # 800094b8 <softfloat_countLeadingZeros8+0x470>
    8000195e:	1007f793          	andi	a5,a5,256
    80001962:	c789                	beqz	a5,8000196c <segfault+0x2e>
    80001964:	00008597          	auipc	a1,0x8
    80001968:	b4c58593          	addi	a1,a1,-1204 # 800094b0 <softfloat_countLeadingZeros8+0x468>
    8000196c:	86a6                	mv	a3,s1
    8000196e:	8622                	mv	a2,s0
    80001970:	00008517          	auipc	a0,0x8
    80001974:	b5050513          	addi	a0,a0,-1200 # 800094c0 <softfloat_countLeadingZeros8+0x478>
    80001978:	c8aff0ef          	jal	ra,80000e02 <do_panic>

000000008000197c <handle_store_access_fault>:
    8000197c:	1141                	addi	sp,sp,-16
    8000197e:	e406                	sd	ra,8(sp)
    80001980:	bd6ff0ef          	jal	ra,80000d56 <dump_tf>
    80001984:	00008517          	auipc	a0,0x8
    80001988:	b5450513          	addi	a0,a0,-1196 # 800094d8 <softfloat_countLeadingZeros8+0x490>
    8000198c:	c76ff0ef          	jal	ra,80000e02 <do_panic>

0000000080001990 <handle_misaligned_store>:
    80001990:	1141                	addi	sp,sp,-16
    80001992:	e406                	sd	ra,8(sp)
    80001994:	bc2ff0ef          	jal	ra,80000d56 <dump_tf>
    80001998:	00008517          	auipc	a0,0x8
    8000199c:	b6050513          	addi	a0,a0,-1184 # 800094f8 <softfloat_countLeadingZeros8+0x4b0>
    800019a0:	c62ff0ef          	jal	ra,80000e02 <do_panic>

00000000800019a4 <handle_load_access_fault>:
    800019a4:	1141                	addi	sp,sp,-16
    800019a6:	e406                	sd	ra,8(sp)
    800019a8:	baeff0ef          	jal	ra,80000d56 <dump_tf>
    800019ac:	00008517          	auipc	a0,0x8
    800019b0:	b6450513          	addi	a0,a0,-1180 # 80009510 <softfloat_countLeadingZeros8+0x4c8>
    800019b4:	c4eff0ef          	jal	ra,80000e02 <do_panic>

00000000800019b8 <handle_misaligned_load>:
    800019b8:	1141                	addi	sp,sp,-16
    800019ba:	e406                	sd	ra,8(sp)
    800019bc:	b9aff0ef          	jal	ra,80000d56 <dump_tf>
    800019c0:	00008517          	auipc	a0,0x8
    800019c4:	b6850513          	addi	a0,a0,-1176 # 80009528 <softfloat_countLeadingZeros8+0x4e0>
    800019c8:	c3aff0ef          	jal	ra,80000e02 <do_panic>

00000000800019cc <handle_illegal_instruction>:
    800019cc:	10853703          	ld	a4,264(a0)
    800019d0:	1141                	addi	sp,sp,-16
    800019d2:	e406                	sd	ra,8(sp)
    800019d4:	00075783          	lhu	a5,0(a4)
    800019d8:	468d                	li	a3,3
    800019da:	12f53023          	sd	a5,288(a0)
    800019de:	0037f613          	andi	a2,a5,3
    800019e2:	00d61863          	bne	a2,a3,800019f2 <handle_illegal_instruction+0x26>
    800019e6:	00275703          	lhu	a4,2(a4)
    800019ea:	0742                	slli	a4,a4,0x10
    800019ec:	8fd9                	or	a5,a5,a4
    800019ee:	12f53023          	sd	a5,288(a0)
    800019f2:	b64ff0ef          	jal	ra,80000d56 <dump_tf>
    800019f6:	00008517          	auipc	a0,0x8
    800019fa:	b4a50513          	addi	a0,a0,-1206 # 80009540 <softfloat_countLeadingZeros8+0x4f8>
    800019fe:	c04ff0ef          	jal	ra,80000e02 <do_panic>

0000000080001a02 <handle_instruction_access_fault>:
    80001a02:	1141                	addi	sp,sp,-16
    80001a04:	e406                	sd	ra,8(sp)
    80001a06:	b50ff0ef          	jal	ra,80000d56 <dump_tf>
    80001a0a:	00008517          	auipc	a0,0x8
    80001a0e:	b5e50513          	addi	a0,a0,-1186 # 80009568 <softfloat_countLeadingZeros8+0x520>
    80001a12:	bf0ff0ef          	jal	ra,80000e02 <do_panic>

0000000080001a16 <handle_misaligned_fetch>:
    80001a16:	1141                	addi	sp,sp,-16
    80001a18:	e406                	sd	ra,8(sp)
    80001a1a:	b3cff0ef          	jal	ra,80000d56 <dump_tf>
    80001a1e:	00008517          	auipc	a0,0x8
    80001a22:	b6a50513          	addi	a0,a0,-1174 # 80009588 <softfloat_countLeadingZeros8+0x540>
    80001a26:	bdcff0ef          	jal	ra,80000e02 <do_panic>

0000000080001a2a <handle_syscall>:
    80001a2a:	1141                	addi	sp,sp,-16
    80001a2c:	e022                	sd	s0,0(sp)
    80001a2e:	7d3c                	ld	a5,120(a0)
    80001a30:	842a                	mv	s0,a0
    80001a32:	08853803          	ld	a6,136(a0)
    80001a36:	7938                	ld	a4,112(a0)
    80001a38:	7534                	ld	a3,104(a0)
    80001a3a:	7130                	ld	a2,96(a0)
    80001a3c:	6d2c                	ld	a1,88(a0)
    80001a3e:	6928                	ld	a0,80(a0)
    80001a40:	e406                	sd	ra,8(sp)
    80001a42:	27f000ef          	jal	ra,800024c0 <do_syscall>
    80001a46:	10843783          	ld	a5,264(s0)
    80001a4a:	60a2                	ld	ra,8(sp)
    80001a4c:	e828                	sd	a0,80(s0)
    80001a4e:	0791                	addi	a5,a5,4
    80001a50:	10f43423          	sd	a5,264(s0)
    80001a54:	6402                	ld	s0,0(sp)
    80001a56:	0141                	addi	sp,sp,16
    80001a58:	8082                	ret

0000000080001a5a <handle_breakpoint>:
    80001a5a:	1141                	addi	sp,sp,-16
    80001a5c:	e406                	sd	ra,8(sp)
    80001a5e:	e022                	sd	s0,0(sp)
    80001a60:	842a                	mv	s0,a0
    80001a62:	af4ff0ef          	jal	ra,80000d56 <dump_tf>
    80001a66:	00008517          	auipc	a0,0x8
    80001a6a:	b4250513          	addi	a0,a0,-1214 # 800095a8 <softfloat_countLeadingZeros8+0x560>
    80001a6e:	ac4ff0ef          	jal	ra,80000d32 <printk>
    80001a72:	10843783          	ld	a5,264(s0)
    80001a76:	60a2                	ld	ra,8(sp)
    80001a78:	0791                	addi	a5,a5,4
    80001a7a:	10f43423          	sd	a5,264(s0)
    80001a7e:	6402                	ld	s0,0(sp)
    80001a80:	0141                	addi	sp,sp,16
    80001a82:	8082                	ret

0000000080001a84 <handle_fault_store>:
    80001a84:	1141                	addi	sp,sp,-16
    80001a86:	e022                	sd	s0,0(sp)
    80001a88:	842a                	mv	s0,a0
    80001a8a:	11053503          	ld	a0,272(a0)
    80001a8e:	4589                	li	a1,2
    80001a90:	e406                	sd	ra,8(sp)
    80001a92:	e50ff0ef          	jal	ra,800010e2 <handle_page_fault>
    80001a96:	e509                	bnez	a0,80001aa0 <handle_fault_store+0x1c>
    80001a98:	60a2                	ld	ra,8(sp)
    80001a9a:	6402                	ld	s0,0(sp)
    80001a9c:	0141                	addi	sp,sp,16
    80001a9e:	8082                	ret
    80001aa0:	11043583          	ld	a1,272(s0)
    80001aa4:	00008617          	auipc	a2,0x8
    80001aa8:	b1460613          	addi	a2,a2,-1260 # 800095b8 <softfloat_countLeadingZeros8+0x570>
    80001aac:	8522                	mv	a0,s0
    80001aae:	e91ff0ef          	jal	ra,8000193e <segfault>

0000000080001ab2 <handle_fault_load>:
    80001ab2:	1141                	addi	sp,sp,-16
    80001ab4:	e022                	sd	s0,0(sp)
    80001ab6:	842a                	mv	s0,a0
    80001ab8:	11053503          	ld	a0,272(a0)
    80001abc:	4585                	li	a1,1
    80001abe:	e406                	sd	ra,8(sp)
    80001ac0:	e22ff0ef          	jal	ra,800010e2 <handle_page_fault>
    80001ac4:	e509                	bnez	a0,80001ace <handle_fault_load+0x1c>
    80001ac6:	60a2                	ld	ra,8(sp)
    80001ac8:	6402                	ld	s0,0(sp)
    80001aca:	0141                	addi	sp,sp,16
    80001acc:	8082                	ret
    80001ace:	11043583          	ld	a1,272(s0)
    80001ad2:	00008617          	auipc	a2,0x8
    80001ad6:	aee60613          	addi	a2,a2,-1298 # 800095c0 <softfloat_countLeadingZeros8+0x578>
    80001ada:	8522                	mv	a0,s0
    80001adc:	e63ff0ef          	jal	ra,8000193e <segfault>

0000000080001ae0 <handle_fault_fetch>:
    80001ae0:	1141                	addi	sp,sp,-16
    80001ae2:	e022                	sd	s0,0(sp)
    80001ae4:	842a                	mv	s0,a0
    80001ae6:	11053503          	ld	a0,272(a0)
    80001aea:	4591                	li	a1,4
    80001aec:	e406                	sd	ra,8(sp)
    80001aee:	df4ff0ef          	jal	ra,800010e2 <handle_page_fault>
    80001af2:	e509                	bnez	a0,80001afc <handle_fault_fetch+0x1c>
    80001af4:	60a2                	ld	ra,8(sp)
    80001af6:	6402                	ld	s0,0(sp)
    80001af8:	0141                	addi	sp,sp,16
    80001afa:	8082                	ret
    80001afc:	11043583          	ld	a1,272(s0)
    80001b00:	00008617          	auipc	a2,0x8
    80001b04:	ac860613          	addi	a2,a2,-1336 # 800095c8 <softfloat_countLeadingZeros8+0x580>
    80001b08:	8522                	mv	a0,s0
    80001b0a:	e35ff0ef          	jal	ra,8000193e <segfault>

0000000080001b0e <handle_trap>:
    80001b0e:	11853783          	ld	a5,280(a0)
    80001b12:	0207c063          	bltz	a5,80001b32 <handle_trap+0x24>
    80001b16:	473d                	li	a4,15
    80001b18:	02f74063          	blt	a4,a5,80001b38 <handle_trap+0x2a>
    80001b1c:	078e                	slli	a5,a5,0x3
    80001b1e:	00007717          	auipc	a4,0x7
    80001b22:	93a70713          	addi	a4,a4,-1734 # 80008458 <trap_handlers.2745>
    80001b26:	97ba                	add	a5,a5,a4
    80001b28:	0007b303          	ld	t1,0(a5) # 1000 <MEM_START-0x7ffff000>
    80001b2c:	00030663          	beqz	t1,80001b38 <handle_trap+0x2a>
    80001b30:	8302                	jr	t1
    80001b32:	144177f3          	csrrci	a5,sip,2
    80001b36:	8082                	ret
    80001b38:	1141                	addi	sp,sp,-16
    80001b3a:	00008517          	auipc	a0,0x8
    80001b3e:	a9650513          	addi	a0,a0,-1386 # 800095d0 <softfloat_countLeadingZeros8+0x588>
    80001b42:	e406                	sd	ra,8(sp)
    80001b44:	ae2ff0ef          	jal	ra,80000e26 <kassert_fail>

0000000080001b48 <sys_getpid>:
    80001b48:	4501                	li	a0,0
    80001b4a:	8082                	ret

0000000080001b4c <sys_time>:
    80001b4c:	872a                	mv	a4,a0
    80001b4e:	c00027f3          	rdcycle	a5
    80001b52:	3b9ad537          	lui	a0,0x3b9ad
    80001b56:	a0050513          	addi	a0,a0,-1536 # 3b9aca00 <MEM_START-0x44653600>
    80001b5a:	02a7d533          	divu	a0,a5,a0
    80001b5e:	c311                	beqz	a4,80001b62 <sys_time+0x16>
    80001b60:	e308                	sd	a0,0(a4)
    80001b62:	8082                	ret

0000000080001b64 <sys_times>:
    80001b64:	87aa                	mv	a5,a0
    80001b66:	c0002773          	rdcycle	a4
    80001b6a:	3e800693          	li	a3,1000
    80001b6e:	02d75733          	divu	a4,a4,a3
    80001b72:	00053423          	sd	zero,8(a0)
    80001b76:	00053823          	sd	zero,16(a0)
    80001b7a:	00053c23          	sd	zero,24(a0)
    80001b7e:	4501                	li	a0,0
    80001b80:	e398                	sd	a4,0(a5)
    80001b82:	8082                	ret

0000000080001b84 <sys_gettimeofday>:
    80001b84:	87aa                	mv	a5,a0
    80001b86:	c0002773          	rdcycle	a4
    80001b8a:	3b9ad6b7          	lui	a3,0x3b9ad
    80001b8e:	a0068693          	addi	a3,a3,-1536 # 3b9aca00 <MEM_START-0x44653600>
    80001b92:	02d77633          	remu	a2,a4,a3
    80001b96:	4501                	li	a0,0
    80001b98:	02d75733          	divu	a4,a4,a3
    80001b9c:	3e800693          	li	a3,1000
    80001ba0:	02d656b3          	divu	a3,a2,a3
    80001ba4:	e398                	sd	a4,0(a5)
    80001ba6:	e794                	sd	a3,8(a5)
    80001ba8:	8082                	ret

0000000080001baa <sys_clock_gettime>:
    80001baa:	c00027f3          	rdcycle	a5
    80001bae:	3b9ad737          	lui	a4,0x3b9ad
    80001bb2:	a0070713          	addi	a4,a4,-1536 # 3b9aca00 <MEM_START-0x44653600>
    80001bb6:	02e7d6b3          	divu	a3,a5,a4
    80001bba:	4501                	li	a0,0
    80001bbc:	02e7f7b3          	remu	a5,a5,a4
    80001bc0:	e194                	sd	a3,0(a1)
    80001bc2:	e59c                	sd	a5,8(a1)
    80001bc4:	8082                	ret

0000000080001bc6 <sys_getdents>:
    80001bc6:	4501                	li	a0,0
    80001bc8:	8082                	ret

0000000080001bca <sys_stub_nosys>:
    80001bca:	fa800513          	li	a0,-88
    80001bce:	8082                	ret

0000000080001bd0 <sys_exit>:
    80001bd0:	00013797          	auipc	a5,0x13
    80001bd4:	49078793          	addi	a5,a5,1168 # 80015060 <current>
    80001bd8:	73b8                	ld	a4,96(a5)
    80001bda:	1101                	addi	sp,sp,-32
    80001bdc:	e822                	sd	s0,16(sp)
    80001bde:	ec06                	sd	ra,24(sp)
    80001be0:	e426                	sd	s1,8(sp)
    80001be2:	e04a                	sd	s2,0(sp)
    80001be4:	842a                	mv	s0,a0
    80001be6:	e701                	bnez	a4,80001bee <sys_exit+0x1e>
    80001be8:	8522                	mv	a0,s0
    80001bea:	e81fe0ef          	jal	ra,80000a6a <shutdown>
    80001bee:	c01025f3          	rdtime	a1
    80001bf2:	c0002973          	rdcycle	s2
    80001bf6:	40e90933          	sub	s2,s2,a4
    80001bfa:	c02024f3          	rdinstret	s1
    80001bfe:	6fb8                	ld	a4,88(a5)
    80001c00:	77bc                	ld	a5,104(a5)
    80001c02:	00008517          	auipc	a0,0x8
    80001c06:	a1650513          	addi	a0,a0,-1514 # 80009618 <softfloat_countLeadingZeros8+0x5d0>
    80001c0a:	8d99                	sub	a1,a1,a4
    80001c0c:	8c9d                	sub	s1,s1,a5
    80001c0e:	924ff0ef          	jal	ra,80000d32 <printk>
    80001c12:	85ca                	mv	a1,s2
    80001c14:	00008517          	auipc	a0,0x8
    80001c18:	a1450513          	addi	a0,a0,-1516 # 80009628 <softfloat_countLeadingZeros8+0x5e0>
    80001c1c:	916ff0ef          	jal	ra,80000d32 <printk>
    80001c20:	85a6                	mv	a1,s1
    80001c22:	00008517          	auipc	a0,0x8
    80001c26:	a1650513          	addi	a0,a0,-1514 # 80009638 <softfloat_countLeadingZeros8+0x5f0>
    80001c2a:	908ff0ef          	jal	ra,80000d32 <printk>
    80001c2e:	06400693          	li	a3,100
    80001c32:	47a9                	li	a5,10
    80001c34:	02d906b3          	mul	a3,s2,a3
    80001c38:	0014d713          	srli	a4,s1,0x1
    80001c3c:	00008517          	auipc	a0,0x8
    80001c40:	a1450513          	addi	a0,a0,-1516 # 80009650 <softfloat_countLeadingZeros8+0x608>
    80001c44:	02f90633          	mul	a2,s2,a5
    80001c48:	96ba                	add	a3,a3,a4
    80001c4a:	0296d6b3          	divu	a3,a3,s1
    80001c4e:	02965633          	divu	a2,a2,s1
    80001c52:	02f6f6b3          	remu	a3,a3,a5
    80001c56:	02f67633          	remu	a2,a2,a5
    80001c5a:	029955b3          	divu	a1,s2,s1
    80001c5e:	8d4ff0ef          	jal	ra,80000d32 <printk>
    80001c62:	b759                	j	80001be8 <sys_exit+0x18>

0000000080001c64 <sys_read>:
    80001c64:	1101                	addi	sp,sp,-32
    80001c66:	e426                	sd	s1,8(sp)
    80001c68:	e04a                	sd	s2,0(sp)
    80001c6a:	ec06                	sd	ra,24(sp)
    80001c6c:	e822                	sd	s0,16(sp)
    80001c6e:	84ae                	mv	s1,a1
    80001c70:	8932                	mv	s2,a2
    80001c72:	a97fe0ef          	jal	ra,80000708 <file_get>
    80001c76:	c115                	beqz	a0,80001c9a <sys_read+0x36>
    80001c78:	864a                	mv	a2,s2
    80001c7a:	85a6                	mv	a1,s1
    80001c7c:	842a                	mv	s0,a0
    80001c7e:	badfe0ef          	jal	ra,8000082a <file_read>
    80001c82:	87aa                	mv	a5,a0
    80001c84:	8522                	mv	a0,s0
    80001c86:	843e                	mv	s0,a5
    80001c88:	9ddfe0ef          	jal	ra,80000664 <file_decref>
    80001c8c:	60e2                	ld	ra,24(sp)
    80001c8e:	8522                	mv	a0,s0
    80001c90:	6442                	ld	s0,16(sp)
    80001c92:	64a2                	ld	s1,8(sp)
    80001c94:	6902                	ld	s2,0(sp)
    80001c96:	6105                	addi	sp,sp,32
    80001c98:	8082                	ret
    80001c9a:	545d                	li	s0,-9
    80001c9c:	bfc5                	j	80001c8c <sys_read+0x28>

0000000080001c9e <sys_pread>:
    80001c9e:	7179                	addi	sp,sp,-48
    80001ca0:	ec26                	sd	s1,24(sp)
    80001ca2:	e84a                	sd	s2,16(sp)
    80001ca4:	e44e                	sd	s3,8(sp)
    80001ca6:	f406                	sd	ra,40(sp)
    80001ca8:	f022                	sd	s0,32(sp)
    80001caa:	84ae                	mv	s1,a1
    80001cac:	8932                	mv	s2,a2
    80001cae:	89b6                	mv	s3,a3
    80001cb0:	a59fe0ef          	jal	ra,80000708 <file_get>
    80001cb4:	c505                	beqz	a0,80001cdc <sys_pread+0x3e>
    80001cb6:	86ce                	mv	a3,s3
    80001cb8:	864a                	mv	a2,s2
    80001cba:	85a6                	mv	a1,s1
    80001cbc:	842a                	mv	s0,a0
    80001cbe:	bbffe0ef          	jal	ra,8000087c <file_pread>
    80001cc2:	87aa                	mv	a5,a0
    80001cc4:	8522                	mv	a0,s0
    80001cc6:	843e                	mv	s0,a5
    80001cc8:	99dfe0ef          	jal	ra,80000664 <file_decref>
    80001ccc:	70a2                	ld	ra,40(sp)
    80001cce:	8522                	mv	a0,s0
    80001cd0:	7402                	ld	s0,32(sp)
    80001cd2:	64e2                	ld	s1,24(sp)
    80001cd4:	6942                	ld	s2,16(sp)
    80001cd6:	69a2                	ld	s3,8(sp)
    80001cd8:	6145                	addi	sp,sp,48
    80001cda:	8082                	ret
    80001cdc:	545d                	li	s0,-9
    80001cde:	b7fd                	j	80001ccc <sys_pread+0x2e>

0000000080001ce0 <sys_write>:
    80001ce0:	1101                	addi	sp,sp,-32
    80001ce2:	e426                	sd	s1,8(sp)
    80001ce4:	e04a                	sd	s2,0(sp)
    80001ce6:	ec06                	sd	ra,24(sp)
    80001ce8:	e822                	sd	s0,16(sp)
    80001cea:	84ae                	mv	s1,a1
    80001cec:	8932                	mv	s2,a2
    80001cee:	a1bfe0ef          	jal	ra,80000708 <file_get>
    80001cf2:	c115                	beqz	a0,80001d16 <sys_write+0x36>
    80001cf4:	864a                	mv	a2,s2
    80001cf6:	85a6                	mv	a1,s1
    80001cf8:	842a                	mv	s0,a0
    80001cfa:	bdbfe0ef          	jal	ra,800008d4 <file_write>
    80001cfe:	87aa                	mv	a5,a0
    80001d00:	8522                	mv	a0,s0
    80001d02:	843e                	mv	s0,a5
    80001d04:	961fe0ef          	jal	ra,80000664 <file_decref>
    80001d08:	60e2                	ld	ra,24(sp)
    80001d0a:	8522                	mv	a0,s0
    80001d0c:	6442                	ld	s0,16(sp)
    80001d0e:	64a2                	ld	s1,8(sp)
    80001d10:	6902                	ld	s2,0(sp)
    80001d12:	6105                	addi	sp,sp,32
    80001d14:	8082                	ret
    80001d16:	545d                	li	s0,-9
    80001d18:	bfc5                	j	80001d08 <sys_write+0x28>

0000000080001d1a <sys_writev>:
    80001d1a:	04c05d63          	blez	a2,80001d74 <sys_writev+0x5a>
    80001d1e:	7179                	addi	sp,sp,-48
    80001d20:	ec26                	sd	s1,24(sp)
    80001d22:	fff6049b          	addiw	s1,a2,-1
    80001d26:	1482                	slli	s1,s1,0x20
    80001d28:	80f1                	srli	s1,s1,0x1c
    80001d2a:	01058793          	addi	a5,a1,16
    80001d2e:	f022                	sd	s0,32(sp)
    80001d30:	e84a                	sd	s2,16(sp)
    80001d32:	e44e                	sd	s3,8(sp)
    80001d34:	f406                	sd	ra,40(sp)
    80001d36:	89aa                	mv	s3,a0
    80001d38:	842e                	mv	s0,a1
    80001d3a:	94be                	add	s1,s1,a5
    80001d3c:	4901                	li	s2,0
    80001d3e:	a021                	j	80001d46 <sys_writev+0x2c>
    80001d40:	992a                	add	s2,s2,a0
    80001d42:	02940163          	beq	s0,s1,80001d64 <sys_writev+0x4a>
    80001d46:	6410                	ld	a2,8(s0)
    80001d48:	600c                	ld	a1,0(s0)
    80001d4a:	854e                	mv	a0,s3
    80001d4c:	0441                	addi	s0,s0,16
    80001d4e:	f93ff0ef          	jal	ra,80001ce0 <sys_write>
    80001d52:	fe0557e3          	bgez	a0,80001d40 <sys_writev+0x26>
    80001d56:	70a2                	ld	ra,40(sp)
    80001d58:	7402                	ld	s0,32(sp)
    80001d5a:	64e2                	ld	s1,24(sp)
    80001d5c:	6942                	ld	s2,16(sp)
    80001d5e:	69a2                	ld	s3,8(sp)
    80001d60:	6145                	addi	sp,sp,48
    80001d62:	8082                	ret
    80001d64:	70a2                	ld	ra,40(sp)
    80001d66:	7402                	ld	s0,32(sp)
    80001d68:	64e2                	ld	s1,24(sp)
    80001d6a:	69a2                	ld	s3,8(sp)
    80001d6c:	854a                	mv	a0,s2
    80001d6e:	6942                	ld	s2,16(sp)
    80001d70:	6145                	addi	sp,sp,48
    80001d72:	8082                	ret
    80001d74:	4501                	li	a0,0
    80001d76:	8082                	ret

0000000080001d78 <sys_openat>:
    80001d78:	1101                	addi	sp,sp,-32
    80001d7a:	e822                	sd	s0,16(sp)
    80001d7c:	e426                	sd	s1,8(sp)
    80001d7e:	e04a                	sd	s2,0(sp)
    80001d80:	ec06                	sd	ra,24(sp)
    80001d82:	f9c00713          	li	a4,-100
    80001d86:	842e                	mv	s0,a1
    80001d88:	84b2                	mv	s1,a2
    80001d8a:	8936                	mv	s2,a3
    80001d8c:	04e50563          	beq	a0,a4,80001dd6 <sys_openat+0x5e>
    80001d90:	979fe0ef          	jal	ra,80000708 <file_get>
    80001d94:	cd1d                	beqz	a0,80001dd2 <sys_openat+0x5a>
    80001d96:	411c                	lw	a5,0(a0)
    80001d98:	577d                	li	a4,-1
    80001d9a:	02e78c63          	beq	a5,a4,80001dd2 <sys_openat+0x5a>
    80001d9e:	85a2                	mv	a1,s0
    80001da0:	853e                	mv	a0,a5
    80001da2:	86ca                	mv	a3,s2
    80001da4:	8626                	mv	a2,s1
    80001da6:	9a9fe0ef          	jal	ra,8000074e <file_openat>
    80001daa:	77fd                	lui	a5,0xfffff
    80001dac:	842a                	mv	s0,a0
    80001dae:	00f56963          	bltu	a0,a5,80001dc0 <sys_openat+0x48>
    80001db2:	2501                	sext.w	a0,a0
    80001db4:	60e2                	ld	ra,24(sp)
    80001db6:	6442                	ld	s0,16(sp)
    80001db8:	64a2                	ld	s1,8(sp)
    80001dba:	6902                	ld	s2,0(sp)
    80001dbc:	6105                	addi	sp,sp,32
    80001dbe:	8082                	ret
    80001dc0:	8d9fe0ef          	jal	ra,80000698 <file_dup>
    80001dc4:	fe0558e3          	bgez	a0,80001db4 <sys_openat+0x3c>
    80001dc8:	8522                	mv	a0,s0
    80001dca:	89bfe0ef          	jal	ra,80000664 <file_decref>
    80001dce:	5551                	li	a0,-12
    80001dd0:	b7d5                	j	80001db4 <sys_openat+0x3c>
    80001dd2:	555d                	li	a0,-9
    80001dd4:	b7c5                	j	80001db4 <sys_openat+0x3c>
    80001dd6:	87aa                	mv	a5,a0
    80001dd8:	b7d9                	j	80001d9e <sys_openat+0x26>

0000000080001dda <sys_open>:
    80001dda:	86b2                	mv	a3,a2
    80001ddc:	862e                	mv	a2,a1
    80001dde:	85aa                	mv	a1,a0
    80001de0:	f9c00513          	li	a0,-100
    80001de4:	bf51                	j	80001d78 <sys_openat>

0000000080001de6 <sys_dup>:
    80001de6:	1141                	addi	sp,sp,-16
    80001de8:	e406                	sd	ra,8(sp)
    80001dea:	e022                	sd	s0,0(sp)
    80001dec:	91dfe0ef          	jal	ra,80000708 <file_get>
    80001df0:	cd11                	beqz	a0,80001e0c <sys_dup+0x26>
    80001df2:	842a                	mv	s0,a0
    80001df4:	8a5fe0ef          	jal	ra,80000698 <file_dup>
    80001df8:	87aa                	mv	a5,a0
    80001dfa:	8522                	mv	a0,s0
    80001dfc:	843e                	mv	s0,a5
    80001dfe:	867fe0ef          	jal	ra,80000664 <file_decref>
    80001e02:	60a2                	ld	ra,8(sp)
    80001e04:	8522                	mv	a0,s0
    80001e06:	6402                	ld	s0,0(sp)
    80001e08:	0141                	addi	sp,sp,16
    80001e0a:	8082                	ret
    80001e0c:	545d                	li	s0,-9
    80001e0e:	bfd5                	j	80001e02 <sys_dup+0x1c>

0000000080001e10 <sys_close>:
    80001e10:	1141                	addi	sp,sp,-16
    80001e12:	e406                	sd	ra,8(sp)
    80001e14:	9c5fe0ef          	jal	ra,800007d8 <fd_close>
    80001e18:	00054563          	bltz	a0,80001e22 <sys_close+0x12>
    80001e1c:	60a2                	ld	ra,8(sp)
    80001e1e:	0141                	addi	sp,sp,16
    80001e20:	8082                	ret
    80001e22:	555d                	li	a0,-9
    80001e24:	bfe5                	j	80001e1c <sys_close+0xc>

0000000080001e26 <sys_renameat>:
    80001e26:	7179                	addi	sp,sp,-48
    80001e28:	f022                	sd	s0,32(sp)
    80001e2a:	ec26                	sd	s1,24(sp)
    80001e2c:	e44e                	sd	s3,8(sp)
    80001e2e:	e052                	sd	s4,0(sp)
    80001e30:	f406                	sd	ra,40(sp)
    80001e32:	e84a                	sd	s2,16(sp)
    80001e34:	f9c00a13          	li	s4,-100
    80001e38:	842e                	mv	s0,a1
    80001e3a:	89b2                	mv	s3,a2
    80001e3c:	84b6                	mv	s1,a3
    80001e3e:	0b450263          	beq	a0,s4,80001ee2 <sys_renameat+0xbc>
    80001e42:	8c7fe0ef          	jal	ra,80000708 <file_get>
    80001e46:	c559                	beqz	a0,80001ed4 <sys_renameat+0xae>
    80001e48:	00052903          	lw	s2,0(a0)
    80001e4c:	0b498463          	beq	s3,s4,80001ef4 <sys_renameat+0xce>
    80001e50:	854e                	mv	a0,s3
    80001e52:	8b7fe0ef          	jal	ra,80000708 <file_get>
    80001e56:	c541                	beqz	a0,80001ede <sys_renameat+0xb8>
    80001e58:	57fd                	li	a5,-1
    80001e5a:	4118                	lw	a4,0(a0)
    80001e5c:	08f90163          	beq	s2,a5,80001ede <sys_renameat+0xb8>
    80001e60:	57fd                	li	a5,-1
    80001e62:	06f70e63          	beq	a4,a5,80001ede <sys_renameat+0xb8>
    80001e66:	89ba                	mv	s3,a4
    80001e68:	8522                	mv	a0,s0
    80001e6a:	432060ef          	jal	ra,8000829c <strlen>
    80001e6e:	8a2a                	mv	s4,a0
    80001e70:	8526                	mv	a0,s1
    80001e72:	42a060ef          	jal	ra,8000829c <strlen>
    80001e76:	800007b7          	lui	a5,0x80000
    80001e7a:	fff7c793          	not	a5,a5
    80001e7e:	0a05                	addi	s4,s4,1
    80001e80:	8622                	mv	a2,s0
    80001e82:	00150813          	addi	a6,a0,1
    80001e86:	0087e863          	bltu	a5,s0,80001e96 <sys_renameat+0x70>
    80001e8a:	00013797          	auipc	a5,0x13
    80001e8e:	2467b783          	ld	a5,582(a5) # 800150d0 <first_free_paddr>
    80001e92:	00f40633          	add	a2,s0,a5
    80001e96:	80000737          	lui	a4,0x80000
    80001e9a:	fff74713          	not	a4,a4
    80001e9e:	87a6                	mv	a5,s1
    80001ea0:	02977363          	bgeu	a4,s1,80001ec6 <sys_renameat+0xa0>
    80001ea4:	4881                	li	a7,0
    80001ea6:	874e                	mv	a4,s3
    80001ea8:	86d2                	mv	a3,s4
    80001eaa:	85ca                	mv	a1,s2
    80001eac:	02600513          	li	a0,38
    80001eb0:	b59fe0ef          	jal	ra,80000a08 <frontend_syscall>
    80001eb4:	2501                	sext.w	a0,a0
    80001eb6:	70a2                	ld	ra,40(sp)
    80001eb8:	7402                	ld	s0,32(sp)
    80001eba:	64e2                	ld	s1,24(sp)
    80001ebc:	6942                	ld	s2,16(sp)
    80001ebe:	69a2                	ld	s3,8(sp)
    80001ec0:	6a02                	ld	s4,0(sp)
    80001ec2:	6145                	addi	sp,sp,48
    80001ec4:	8082                	ret
    80001ec6:	00013717          	auipc	a4,0x13
    80001eca:	20a73703          	ld	a4,522(a4) # 800150d0 <first_free_paddr>
    80001ece:	00e487b3          	add	a5,s1,a4
    80001ed2:	bfc9                	j	80001ea4 <sys_renameat+0x7e>
    80001ed4:	01498563          	beq	s3,s4,80001ede <sys_renameat+0xb8>
    80001ed8:	854e                	mv	a0,s3
    80001eda:	82ffe0ef          	jal	ra,80000708 <file_get>
    80001ede:	555d                	li	a0,-9
    80001ee0:	bfd9                	j	80001eb6 <sys_renameat+0x90>
    80001ee2:	892a                	mv	s2,a0
    80001ee4:	00a60f63          	beq	a2,a0,80001f02 <sys_renameat+0xdc>
    80001ee8:	854e                	mv	a0,s3
    80001eea:	81ffe0ef          	jal	ra,80000708 <file_get>
    80001eee:	d965                	beqz	a0,80001ede <sys_renameat+0xb8>
    80001ef0:	4118                	lw	a4,0(a0)
    80001ef2:	b7bd                	j	80001e60 <sys_renameat+0x3a>
    80001ef4:	57fd                	li	a5,-1
    80001ef6:	f9c00993          	li	s3,-100
    80001efa:	f6f917e3          	bne	s2,a5,80001e68 <sys_renameat+0x42>
    80001efe:	555d                	li	a0,-9
    80001f00:	bf5d                	j	80001eb6 <sys_renameat+0x90>
    80001f02:	f9c00993          	li	s3,-100
    80001f06:	b78d                	j	80001e68 <sys_renameat+0x42>

0000000080001f08 <sys_fcntl>:
    80001f08:	1101                	addi	sp,sp,-32
    80001f0a:	e426                	sd	s1,8(sp)
    80001f0c:	e04a                	sd	s2,0(sp)
    80001f0e:	ec06                	sd	ra,24(sp)
    80001f10:	e822                	sd	s0,16(sp)
    80001f12:	84ae                	mv	s1,a1
    80001f14:	8932                	mv	s2,a2
    80001f16:	ff2fe0ef          	jal	ra,80000708 <file_get>
    80001f1a:	c90d                	beqz	a0,80001f4c <sys_fcntl+0x44>
    80001f1c:	410c                	lw	a1,0(a0)
    80001f1e:	842a                	mv	s0,a0
    80001f20:	4781                	li	a5,0
    80001f22:	4881                	li	a7,0
    80001f24:	4801                	li	a6,0
    80001f26:	4701                	li	a4,0
    80001f28:	86ca                	mv	a3,s2
    80001f2a:	8626                	mv	a2,s1
    80001f2c:	4565                	li	a0,25
    80001f2e:	adbfe0ef          	jal	ra,80000a08 <frontend_syscall>
    80001f32:	87aa                	mv	a5,a0
    80001f34:	8522                	mv	a0,s0
    80001f36:	0007841b          	sext.w	s0,a5
    80001f3a:	f2afe0ef          	jal	ra,80000664 <file_decref>
    80001f3e:	60e2                	ld	ra,24(sp)
    80001f40:	8522                	mv	a0,s0
    80001f42:	6442                	ld	s0,16(sp)
    80001f44:	64a2                	ld	s1,8(sp)
    80001f46:	6902                	ld	s2,0(sp)
    80001f48:	6105                	addi	sp,sp,32
    80001f4a:	8082                	ret
    80001f4c:	545d                	li	s0,-9
    80001f4e:	bfc5                	j	80001f3e <sys_fcntl+0x36>

0000000080001f50 <sys_faccessat>:
    80001f50:	1101                	addi	sp,sp,-32
    80001f52:	e822                	sd	s0,16(sp)
    80001f54:	e04a                	sd	s2,0(sp)
    80001f56:	ec06                	sd	ra,24(sp)
    80001f58:	e426                	sd	s1,8(sp)
    80001f5a:	f9c00793          	li	a5,-100
    80001f5e:	842e                	mv	s0,a1
    80001f60:	8932                	mv	s2,a2
    80001f62:	06f50163          	beq	a0,a5,80001fc4 <sys_faccessat+0x74>
    80001f66:	fa2fe0ef          	jal	ra,80000708 <file_get>
    80001f6a:	c531                	beqz	a0,80001fb6 <sys_faccessat+0x66>
    80001f6c:	410c                	lw	a1,0(a0)
    80001f6e:	57fd                	li	a5,-1
    80001f70:	04f58363          	beq	a1,a5,80001fb6 <sys_faccessat+0x66>
    80001f74:	84ae                	mv	s1,a1
    80001f76:	8522                	mv	a0,s0
    80001f78:	324060ef          	jal	ra,8000829c <strlen>
    80001f7c:	800007b7          	lui	a5,0x80000
    80001f80:	fff7c793          	not	a5,a5
    80001f84:	8622                	mv	a2,s0
    80001f86:	00150693          	addi	a3,a0,1
    80001f8a:	0087e863          	bltu	a5,s0,80001f9a <sys_faccessat+0x4a>
    80001f8e:	00013797          	auipc	a5,0x13
    80001f92:	1427b783          	ld	a5,322(a5) # 800150d0 <first_free_paddr>
    80001f96:	00f40633          	add	a2,s0,a5
    80001f9a:	6442                	ld	s0,16(sp)
    80001f9c:	60e2                	ld	ra,24(sp)
    80001f9e:	874a                	mv	a4,s2
    80001fa0:	85a6                	mv	a1,s1
    80001fa2:	6902                	ld	s2,0(sp)
    80001fa4:	64a2                	ld	s1,8(sp)
    80001fa6:	4881                	li	a7,0
    80001fa8:	4801                	li	a6,0
    80001faa:	4781                	li	a5,0
    80001fac:	03000513          	li	a0,48
    80001fb0:	6105                	addi	sp,sp,32
    80001fb2:	a57fe06f          	j	80000a08 <frontend_syscall>
    80001fb6:	60e2                	ld	ra,24(sp)
    80001fb8:	6442                	ld	s0,16(sp)
    80001fba:	64a2                	ld	s1,8(sp)
    80001fbc:	6902                	ld	s2,0(sp)
    80001fbe:	555d                	li	a0,-9
    80001fc0:	6105                	addi	sp,sp,32
    80001fc2:	8082                	ret
    80001fc4:	f9c00493          	li	s1,-100
    80001fc8:	b77d                	j	80001f76 <sys_faccessat+0x26>

0000000080001fca <sys_access>:
    80001fca:	862e                	mv	a2,a1
    80001fcc:	85aa                	mv	a1,a0
    80001fce:	f9c00513          	li	a0,-100
    80001fd2:	bfbd                	j	80001f50 <sys_faccessat>

0000000080001fd4 <sys_linkat>:
    80001fd4:	7139                	addi	sp,sp,-64
    80001fd6:	f822                	sd	s0,48(sp)
    80001fd8:	f426                	sd	s1,40(sp)
    80001fda:	ec4e                	sd	s3,24(sp)
    80001fdc:	e852                	sd	s4,16(sp)
    80001fde:	e456                	sd	s5,8(sp)
    80001fe0:	fc06                	sd	ra,56(sp)
    80001fe2:	f04a                	sd	s2,32(sp)
    80001fe4:	f9c00a93          	li	s5,-100
    80001fe8:	842e                	mv	s0,a1
    80001fea:	89b2                	mv	s3,a2
    80001fec:	84b6                	mv	s1,a3
    80001fee:	8a3a                	mv	s4,a4
    80001ff0:	0b550863          	beq	a0,s5,800020a0 <sys_linkat+0xcc>
    80001ff4:	f14fe0ef          	jal	ra,80000708 <file_get>
    80001ff8:	c549                	beqz	a0,80002082 <sys_linkat+0xae>
    80001ffa:	00052903          	lw	s2,0(a0)
    80001ffe:	0b598a63          	beq	s3,s5,800020b2 <sys_linkat+0xde>
    80002002:	854e                	mv	a0,s3
    80002004:	f04fe0ef          	jal	ra,80000708 <file_get>
    80002008:	c151                	beqz	a0,8000208c <sys_linkat+0xb8>
    8000200a:	57fd                	li	a5,-1
    8000200c:	4118                	lw	a4,0(a0)
    8000200e:	06f90f63          	beq	s2,a5,8000208c <sys_linkat+0xb8>
    80002012:	57fd                	li	a5,-1
    80002014:	06f70c63          	beq	a4,a5,8000208c <sys_linkat+0xb8>
    80002018:	89ba                	mv	s3,a4
    8000201a:	8522                	mv	a0,s0
    8000201c:	280060ef          	jal	ra,8000829c <strlen>
    80002020:	8aaa                	mv	s5,a0
    80002022:	8526                	mv	a0,s1
    80002024:	278060ef          	jal	ra,8000829c <strlen>
    80002028:	800007b7          	lui	a5,0x80000
    8000202c:	fff7c793          	not	a5,a5
    80002030:	0a85                	addi	s5,s5,1
    80002032:	8622                	mv	a2,s0
    80002034:	00150813          	addi	a6,a0,1
    80002038:	0087e863          	bltu	a5,s0,80002048 <sys_linkat+0x74>
    8000203c:	00013797          	auipc	a5,0x13
    80002040:	0947b783          	ld	a5,148(a5) # 800150d0 <first_free_paddr>
    80002044:	00f40633          	add	a2,s0,a5
    80002048:	80000737          	lui	a4,0x80000
    8000204c:	fff74713          	not	a4,a4
    80002050:	87a6                	mv	a5,s1
    80002052:	00976863          	bltu	a4,s1,80002062 <sys_linkat+0x8e>
    80002056:	00013717          	auipc	a4,0x13
    8000205a:	07a73703          	ld	a4,122(a4) # 800150d0 <first_free_paddr>
    8000205e:	00e487b3          	add	a5,s1,a4
    80002062:	7442                	ld	s0,48(sp)
    80002064:	70e2                	ld	ra,56(sp)
    80002066:	74a2                	ld	s1,40(sp)
    80002068:	88d2                	mv	a7,s4
    8000206a:	874e                	mv	a4,s3
    8000206c:	6a42                	ld	s4,16(sp)
    8000206e:	69e2                	ld	s3,24(sp)
    80002070:	86d6                	mv	a3,s5
    80002072:	85ca                	mv	a1,s2
    80002074:	6aa2                	ld	s5,8(sp)
    80002076:	7902                	ld	s2,32(sp)
    80002078:	02500513          	li	a0,37
    8000207c:	6121                	addi	sp,sp,64
    8000207e:	98bfe06f          	j	80000a08 <frontend_syscall>
    80002082:	01598563          	beq	s3,s5,8000208c <sys_linkat+0xb8>
    80002086:	854e                	mv	a0,s3
    80002088:	e80fe0ef          	jal	ra,80000708 <file_get>
    8000208c:	70e2                	ld	ra,56(sp)
    8000208e:	7442                	ld	s0,48(sp)
    80002090:	74a2                	ld	s1,40(sp)
    80002092:	7902                	ld	s2,32(sp)
    80002094:	69e2                	ld	s3,24(sp)
    80002096:	6a42                	ld	s4,16(sp)
    80002098:	6aa2                	ld	s5,8(sp)
    8000209a:	555d                	li	a0,-9
    8000209c:	6121                	addi	sp,sp,64
    8000209e:	8082                	ret
    800020a0:	892a                	mv	s2,a0
    800020a2:	00a60e63          	beq	a2,a0,800020be <sys_linkat+0xea>
    800020a6:	854e                	mv	a0,s3
    800020a8:	e60fe0ef          	jal	ra,80000708 <file_get>
    800020ac:	d165                	beqz	a0,8000208c <sys_linkat+0xb8>
    800020ae:	4118                	lw	a4,0(a0)
    800020b0:	b78d                	j	80002012 <sys_linkat+0x3e>
    800020b2:	57fd                	li	a5,-1
    800020b4:	f9c00993          	li	s3,-100
    800020b8:	f6f911e3          	bne	s2,a5,8000201a <sys_linkat+0x46>
    800020bc:	bfc1                	j	8000208c <sys_linkat+0xb8>
    800020be:	f9c00993          	li	s3,-100
    800020c2:	bfa1                	j	8000201a <sys_linkat+0x46>

00000000800020c4 <sys_link>:
    800020c4:	86ae                	mv	a3,a1
    800020c6:	4701                	li	a4,0
    800020c8:	85aa                	mv	a1,a0
    800020ca:	f9c00613          	li	a2,-100
    800020ce:	f9c00513          	li	a0,-100
    800020d2:	b709                	j	80001fd4 <sys_linkat>

00000000800020d4 <sys_unlinkat>:
    800020d4:	1101                	addi	sp,sp,-32
    800020d6:	e822                	sd	s0,16(sp)
    800020d8:	e04a                	sd	s2,0(sp)
    800020da:	ec06                	sd	ra,24(sp)
    800020dc:	e426                	sd	s1,8(sp)
    800020de:	f9c00793          	li	a5,-100
    800020e2:	842e                	mv	s0,a1
    800020e4:	8932                	mv	s2,a2
    800020e6:	06f50163          	beq	a0,a5,80002148 <sys_unlinkat+0x74>
    800020ea:	e1efe0ef          	jal	ra,80000708 <file_get>
    800020ee:	c531                	beqz	a0,8000213a <sys_unlinkat+0x66>
    800020f0:	410c                	lw	a1,0(a0)
    800020f2:	57fd                	li	a5,-1
    800020f4:	04f58363          	beq	a1,a5,8000213a <sys_unlinkat+0x66>
    800020f8:	84ae                	mv	s1,a1
    800020fa:	8522                	mv	a0,s0
    800020fc:	1a0060ef          	jal	ra,8000829c <strlen>
    80002100:	800007b7          	lui	a5,0x80000
    80002104:	fff7c793          	not	a5,a5
    80002108:	8622                	mv	a2,s0
    8000210a:	00150693          	addi	a3,a0,1
    8000210e:	0087e863          	bltu	a5,s0,8000211e <sys_unlinkat+0x4a>
    80002112:	00013797          	auipc	a5,0x13
    80002116:	fbe7b783          	ld	a5,-66(a5) # 800150d0 <first_free_paddr>
    8000211a:	00f40633          	add	a2,s0,a5
    8000211e:	6442                	ld	s0,16(sp)
    80002120:	60e2                	ld	ra,24(sp)
    80002122:	874a                	mv	a4,s2
    80002124:	85a6                	mv	a1,s1
    80002126:	6902                	ld	s2,0(sp)
    80002128:	64a2                	ld	s1,8(sp)
    8000212a:	4881                	li	a7,0
    8000212c:	4801                	li	a6,0
    8000212e:	4781                	li	a5,0
    80002130:	02300513          	li	a0,35
    80002134:	6105                	addi	sp,sp,32
    80002136:	8d3fe06f          	j	80000a08 <frontend_syscall>
    8000213a:	60e2                	ld	ra,24(sp)
    8000213c:	6442                	ld	s0,16(sp)
    8000213e:	64a2                	ld	s1,8(sp)
    80002140:	6902                	ld	s2,0(sp)
    80002142:	555d                	li	a0,-9
    80002144:	6105                	addi	sp,sp,32
    80002146:	8082                	ret
    80002148:	f9c00493          	li	s1,-100
    8000214c:	b77d                	j	800020fa <sys_unlinkat+0x26>

000000008000214e <sys_unlink>:
    8000214e:	85aa                	mv	a1,a0
    80002150:	4601                	li	a2,0
    80002152:	f9c00513          	li	a0,-100
    80002156:	bfbd                	j	800020d4 <sys_unlinkat>

0000000080002158 <sys_mkdirat>:
    80002158:	1101                	addi	sp,sp,-32
    8000215a:	e822                	sd	s0,16(sp)
    8000215c:	e04a                	sd	s2,0(sp)
    8000215e:	ec06                	sd	ra,24(sp)
    80002160:	e426                	sd	s1,8(sp)
    80002162:	f9c00793          	li	a5,-100
    80002166:	842e                	mv	s0,a1
    80002168:	8932                	mv	s2,a2
    8000216a:	06f50163          	beq	a0,a5,800021cc <sys_mkdirat+0x74>
    8000216e:	d9afe0ef          	jal	ra,80000708 <file_get>
    80002172:	c531                	beqz	a0,800021be <sys_mkdirat+0x66>
    80002174:	410c                	lw	a1,0(a0)
    80002176:	57fd                	li	a5,-1
    80002178:	04f58363          	beq	a1,a5,800021be <sys_mkdirat+0x66>
    8000217c:	84ae                	mv	s1,a1
    8000217e:	8522                	mv	a0,s0
    80002180:	11c060ef          	jal	ra,8000829c <strlen>
    80002184:	800007b7          	lui	a5,0x80000
    80002188:	fff7c793          	not	a5,a5
    8000218c:	8622                	mv	a2,s0
    8000218e:	00150693          	addi	a3,a0,1
    80002192:	0087e863          	bltu	a5,s0,800021a2 <sys_mkdirat+0x4a>
    80002196:	00013797          	auipc	a5,0x13
    8000219a:	f3a7b783          	ld	a5,-198(a5) # 800150d0 <first_free_paddr>
    8000219e:	00f40633          	add	a2,s0,a5
    800021a2:	6442                	ld	s0,16(sp)
    800021a4:	60e2                	ld	ra,24(sp)
    800021a6:	874a                	mv	a4,s2
    800021a8:	85a6                	mv	a1,s1
    800021aa:	6902                	ld	s2,0(sp)
    800021ac:	64a2                	ld	s1,8(sp)
    800021ae:	4881                	li	a7,0
    800021b0:	4801                	li	a6,0
    800021b2:	4781                	li	a5,0
    800021b4:	02200513          	li	a0,34
    800021b8:	6105                	addi	sp,sp,32
    800021ba:	84ffe06f          	j	80000a08 <frontend_syscall>
    800021be:	60e2                	ld	ra,24(sp)
    800021c0:	6442                	ld	s0,16(sp)
    800021c2:	64a2                	ld	s1,8(sp)
    800021c4:	6902                	ld	s2,0(sp)
    800021c6:	555d                	li	a0,-9
    800021c8:	6105                	addi	sp,sp,32
    800021ca:	8082                	ret
    800021cc:	f9c00493          	li	s1,-100
    800021d0:	b77d                	j	8000217e <sys_mkdirat+0x26>

00000000800021d2 <sys_mkdir>:
    800021d2:	862e                	mv	a2,a1
    800021d4:	85aa                	mv	a1,a0
    800021d6:	f9c00513          	li	a0,-100
    800021da:	bfbd                	j	80002158 <sys_mkdirat>

00000000800021dc <sys_chdir>:
    800021dc:	1141                	addi	sp,sp,-16
    800021de:	800007b7          	lui	a5,0x80000
    800021e2:	e406                	sd	ra,8(sp)
    800021e4:	fff7c793          	not	a5,a5
    800021e8:	85aa                	mv	a1,a0
    800021ea:	00a7e863          	bltu	a5,a0,800021fa <sys_chdir+0x1e>
    800021ee:	00013797          	auipc	a5,0x13
    800021f2:	ee27b783          	ld	a5,-286(a5) # 800150d0 <first_free_paddr>
    800021f6:	00f505b3          	add	a1,a0,a5
    800021fa:	4881                	li	a7,0
    800021fc:	4801                	li	a6,0
    800021fe:	4781                	li	a5,0
    80002200:	4701                	li	a4,0
    80002202:	4681                	li	a3,0
    80002204:	4601                	li	a2,0
    80002206:	03100513          	li	a0,49
    8000220a:	ffefe0ef          	jal	ra,80000a08 <frontend_syscall>
    8000220e:	60a2                	ld	ra,8(sp)
    80002210:	2501                	sext.w	a0,a0
    80002212:	0141                	addi	sp,sp,16
    80002214:	8082                	ret

0000000080002216 <sys_fstat>:
    80002216:	1101                	addi	sp,sp,-32
    80002218:	e426                	sd	s1,8(sp)
    8000221a:	ec06                	sd	ra,24(sp)
    8000221c:	e822                	sd	s0,16(sp)
    8000221e:	84ae                	mv	s1,a1
    80002220:	ce8fe0ef          	jal	ra,80000708 <file_get>
    80002224:	c105                	beqz	a0,80002244 <sys_fstat+0x2e>
    80002226:	85a6                	mv	a1,s1
    80002228:	842a                	mv	s0,a0
    8000222a:	f54fe0ef          	jal	ra,8000097e <file_stat>
    8000222e:	87aa                	mv	a5,a0
    80002230:	8522                	mv	a0,s0
    80002232:	843e                	mv	s0,a5
    80002234:	c30fe0ef          	jal	ra,80000664 <file_decref>
    80002238:	60e2                	ld	ra,24(sp)
    8000223a:	8522                	mv	a0,s0
    8000223c:	6442                	ld	s0,16(sp)
    8000223e:	64a2                	ld	s1,8(sp)
    80002240:	6105                	addi	sp,sp,32
    80002242:	8082                	ret
    80002244:	545d                	li	s0,-9
    80002246:	bfcd                	j	80002238 <sys_fstat+0x22>

0000000080002248 <sys_ftruncate>:
    80002248:	1101                	addi	sp,sp,-32
    8000224a:	e426                	sd	s1,8(sp)
    8000224c:	ec06                	sd	ra,24(sp)
    8000224e:	e822                	sd	s0,16(sp)
    80002250:	84ae                	mv	s1,a1
    80002252:	cb6fe0ef          	jal	ra,80000708 <file_get>
    80002256:	c105                	beqz	a0,80002276 <sys_ftruncate+0x2e>
    80002258:	85a6                	mv	a1,s1
    8000225a:	842a                	mv	s0,a0
    8000225c:	f74fe0ef          	jal	ra,800009d0 <file_truncate>
    80002260:	87aa                	mv	a5,a0
    80002262:	8522                	mv	a0,s0
    80002264:	843e                	mv	s0,a5
    80002266:	bfefe0ef          	jal	ra,80000664 <file_decref>
    8000226a:	60e2                	ld	ra,24(sp)
    8000226c:	8522                	mv	a0,s0
    8000226e:	6442                	ld	s0,16(sp)
    80002270:	64a2                	ld	s1,8(sp)
    80002272:	6105                	addi	sp,sp,32
    80002274:	8082                	ret
    80002276:	545d                	li	s0,-9
    80002278:	bfcd                	j	8000226a <sys_ftruncate+0x22>

000000008000227a <sys_lseek>:
    8000227a:	1101                	addi	sp,sp,-32
    8000227c:	e426                	sd	s1,8(sp)
    8000227e:	e04a                	sd	s2,0(sp)
    80002280:	ec06                	sd	ra,24(sp)
    80002282:	e822                	sd	s0,16(sp)
    80002284:	84ae                	mv	s1,a1
    80002286:	8932                	mv	s2,a2
    80002288:	c80fe0ef          	jal	ra,80000708 <file_get>
    8000228c:	c115                	beqz	a0,800022b0 <sys_lseek+0x36>
    8000228e:	864a                	mv	a2,s2
    80002290:	85a6                	mv	a1,s1
    80002292:	842a                	mv	s0,a0
    80002294:	f5efe0ef          	jal	ra,800009f2 <file_lseek>
    80002298:	87aa                	mv	a5,a0
    8000229a:	8522                	mv	a0,s0
    8000229c:	843e                	mv	s0,a5
    8000229e:	bc6fe0ef          	jal	ra,80000664 <file_decref>
    800022a2:	60e2                	ld	ra,24(sp)
    800022a4:	8522                	mv	a0,s0
    800022a6:	6442                	ld	s0,16(sp)
    800022a8:	64a2                	ld	s1,8(sp)
    800022aa:	6902                	ld	s2,0(sp)
    800022ac:	6105                	addi	sp,sp,32
    800022ae:	8082                	ret
    800022b0:	545d                	li	s0,-9
    800022b2:	bfc5                	j	800022a2 <sys_lseek+0x28>

00000000800022b4 <sys_lstat>:
    800022b4:	7135                	addi	sp,sp,-160
    800022b6:	e922                	sd	s0,144(sp)
    800022b8:	e14a                	sd	s2,128(sp)
    800022ba:	842a                	mv	s0,a0
    800022bc:	892e                	mv	s2,a1
    800022be:	ed06                	sd	ra,152(sp)
    800022c0:	e526                	sd	s1,136(sp)
    800022c2:	7db050ef          	jal	ra,8000829c <strlen>
    800022c6:	800007b7          	lui	a5,0x80000
    800022ca:	fff7c793          	not	a5,a5
    800022ce:	85a2                	mv	a1,s0
    800022d0:	00150613          	addi	a2,a0,1
    800022d4:	0087e863          	bltu	a5,s0,800022e4 <sys_lstat+0x30>
    800022d8:	00013797          	auipc	a5,0x13
    800022dc:	df87b783          	ld	a5,-520(a5) # 800150d0 <first_free_paddr>
    800022e0:	00f405b3          	add	a1,s0,a5
    800022e4:	800007b7          	lui	a5,0x80000
    800022e8:	840a                	mv	s0,sp
    800022ea:	fff7c793          	not	a5,a5
    800022ee:	86a2                	mv	a3,s0
    800022f0:	0087e763          	bltu	a5,s0,800022fe <sys_lstat+0x4a>
    800022f4:	00013697          	auipc	a3,0x13
    800022f8:	ddc6b683          	ld	a3,-548(a3) # 800150d0 <first_free_paddr>
    800022fc:	96a2                	add	a3,a3,s0
    800022fe:	4881                	li	a7,0
    80002300:	4801                	li	a6,0
    80002302:	4781                	li	a5,0
    80002304:	4701                	li	a4,0
    80002306:	40f00513          	li	a0,1039
    8000230a:	efefe0ef          	jal	ra,80000a08 <frontend_syscall>
    8000230e:	84aa                	mv	s1,a0
    80002310:	85a2                	mv	a1,s0
    80002312:	854a                	mv	a0,s2
    80002314:	f72fe0ef          	jal	ra,80000a86 <copy_stat>
    80002318:	60ea                	ld	ra,152(sp)
    8000231a:	644a                	ld	s0,144(sp)
    8000231c:	690a                	ld	s2,128(sp)
    8000231e:	8526                	mv	a0,s1
    80002320:	64aa                	ld	s1,136(sp)
    80002322:	610d                	addi	sp,sp,160
    80002324:	8082                	ret

0000000080002326 <sys_fstatat>:
    80002326:	7171                	addi	sp,sp,-176
    80002328:	f122                	sd	s0,160(sp)
    8000232a:	e94a                	sd	s2,144(sp)
    8000232c:	e54e                	sd	s3,136(sp)
    8000232e:	f506                	sd	ra,168(sp)
    80002330:	ed26                	sd	s1,152(sp)
    80002332:	f9c00793          	li	a5,-100
    80002336:	842e                	mv	s0,a1
    80002338:	8932                	mv	s2,a2
    8000233a:	89b6                	mv	s3,a3
    8000233c:	08f50263          	beq	a0,a5,800023c0 <sys_fstatat+0x9a>
    80002340:	bc8fe0ef          	jal	ra,80000708 <file_get>
    80002344:	cd25                	beqz	a0,800023bc <sys_fstatat+0x96>
    80002346:	410c                	lw	a1,0(a0)
    80002348:	57fd                	li	a5,-1
    8000234a:	06f58963          	beq	a1,a5,800023bc <sys_fstatat+0x96>
    8000234e:	84ae                	mv	s1,a1
    80002350:	8522                	mv	a0,s0
    80002352:	74b050ef          	jal	ra,8000829c <strlen>
    80002356:	800007b7          	lui	a5,0x80000
    8000235a:	fff7c793          	not	a5,a5
    8000235e:	8622                	mv	a2,s0
    80002360:	00150693          	addi	a3,a0,1
    80002364:	0087e863          	bltu	a5,s0,80002374 <sys_fstatat+0x4e>
    80002368:	00013797          	auipc	a5,0x13
    8000236c:	d687b783          	ld	a5,-664(a5) # 800150d0 <first_free_paddr>
    80002370:	00f40633          	add	a2,s0,a5
    80002374:	800007b7          	lui	a5,0x80000
    80002378:	840a                	mv	s0,sp
    8000237a:	fff7c793          	not	a5,a5
    8000237e:	8722                	mv	a4,s0
    80002380:	0287f863          	bgeu	a5,s0,800023b0 <sys_fstatat+0x8a>
    80002384:	85a6                	mv	a1,s1
    80002386:	87ce                	mv	a5,s3
    80002388:	4881                	li	a7,0
    8000238a:	4801                	li	a6,0
    8000238c:	04f00513          	li	a0,79
    80002390:	e78fe0ef          	jal	ra,80000a08 <frontend_syscall>
    80002394:	87aa                	mv	a5,a0
    80002396:	85a2                	mv	a1,s0
    80002398:	854a                	mv	a0,s2
    8000239a:	843e                	mv	s0,a5
    8000239c:	eeafe0ef          	jal	ra,80000a86 <copy_stat>
    800023a0:	70aa                	ld	ra,168(sp)
    800023a2:	8522                	mv	a0,s0
    800023a4:	740a                	ld	s0,160(sp)
    800023a6:	64ea                	ld	s1,152(sp)
    800023a8:	694a                	ld	s2,144(sp)
    800023aa:	69aa                	ld	s3,136(sp)
    800023ac:	614d                	addi	sp,sp,176
    800023ae:	8082                	ret
    800023b0:	00013717          	auipc	a4,0x13
    800023b4:	d2073703          	ld	a4,-736(a4) # 800150d0 <first_free_paddr>
    800023b8:	9722                	add	a4,a4,s0
    800023ba:	b7e9                	j	80002384 <sys_fstatat+0x5e>
    800023bc:	545d                	li	s0,-9
    800023be:	b7cd                	j	800023a0 <sys_fstatat+0x7a>
    800023c0:	f9c00493          	li	s1,-100
    800023c4:	b771                	j	80002350 <sys_fstatat+0x2a>

00000000800023c6 <sys_stat>:
    800023c6:	862e                	mv	a2,a1
    800023c8:	4681                	li	a3,0
    800023ca:	85aa                	mv	a1,a0
    800023cc:	f9c00513          	li	a0,-100
    800023d0:	bf99                	j	80002326 <sys_fstatat>

00000000800023d2 <sys_getcwd>:
    800023d2:	1101                	addi	sp,sp,-32
    800023d4:	4609                	li	a2,2
    800023d6:	e822                	sd	s0,16(sp)
    800023d8:	e426                	sd	s1,8(sp)
    800023da:	842a                	mv	s0,a0
    800023dc:	84ae                	mv	s1,a1
    800023de:	ec06                	sd	ra,24(sp)
    800023e0:	b22ff0ef          	jal	ra,80001702 <populate_mapping>
    800023e4:	800007b7          	lui	a5,0x80000
    800023e8:	fff7c793          	not	a5,a5
    800023ec:	85a2                	mv	a1,s0
    800023ee:	0087e863          	bltu	a5,s0,800023fe <sys_getcwd+0x2c>
    800023f2:	00013797          	auipc	a5,0x13
    800023f6:	cde7b783          	ld	a5,-802(a5) # 800150d0 <first_free_paddr>
    800023fa:	00f405b3          	add	a1,s0,a5
    800023fe:	6442                	ld	s0,16(sp)
    80002400:	60e2                	ld	ra,24(sp)
    80002402:	8626                	mv	a2,s1
    80002404:	64a2                	ld	s1,8(sp)
    80002406:	4881                	li	a7,0
    80002408:	4801                	li	a6,0
    8000240a:	4781                	li	a5,0
    8000240c:	4701                	li	a4,0
    8000240e:	4681                	li	a3,0
    80002410:	4545                	li	a0,17
    80002412:	6105                	addi	sp,sp,32
    80002414:	df4fe06f          	j	80000a08 <frontend_syscall>

0000000080002418 <sys_brk>:
    80002418:	882ff06f          	j	8000149a <do_brk>

000000008000241c <sys_uname>:
    8000241c:	1141                	addi	sp,sp,-16
    8000241e:	4635                	li	a2,13
    80002420:	00007597          	auipc	a1,0x7
    80002424:	24058593          	addi	a1,a1,576 # 80009660 <softfloat_countLeadingZeros8+0x618>
    80002428:	e022                	sd	s0,0(sp)
    8000242a:	e406                	sd	ra,8(sp)
    8000242c:	842a                	mv	s0,a0
    8000242e:	5d9050ef          	jal	ra,80008206 <memcpy>
    80002432:	00007797          	auipc	a5,0x7
    80002436:	23e78793          	addi	a5,a5,574 # 80009670 <softfloat_countLeadingZeros8+0x628>
    8000243a:	0027c503          	lbu	a0,2(a5)
    8000243e:	0007c883          	lbu	a7,0(a5)
    80002442:	0017c803          	lbu	a6,1(a5)
    80002446:	0037c583          	lbu	a1,3(a5)
    8000244a:	0047c603          	lbu	a2,4(a5)
    8000244e:	0057c683          	lbu	a3,5(a5)
    80002452:	0067c703          	lbu	a4,6(a5)
    80002456:	08a40223          	sb	a0,132(s0)
    8000245a:	040400a3          	sb	zero,65(s0)
    8000245e:	09140123          	sb	a7,130(s0)
    80002462:	090401a3          	sb	a6,131(s0)
    80002466:	08b402a3          	sb	a1,133(s0)
    8000246a:	08c40323          	sb	a2,134(s0)
    8000246e:	08d403a3          	sb	a3,135(s0)
    80002472:	08e40423          	sb	a4,136(s0)
    80002476:	0c0401a3          	sb	zero,195(s0)
    8000247a:	10040223          	sb	zero,260(s0)
    8000247e:	140402a3          	sb	zero,325(s0)
    80002482:	60a2                	ld	ra,8(sp)
    80002484:	6402                	ld	s0,0(sp)
    80002486:	4501                	li	a0,0
    80002488:	0141                	addi	sp,sp,16
    8000248a:	8082                	ret

000000008000248c <sys_mmap>:
    8000248c:	ed1fe06f          	j	8000135c <do_mmap>

0000000080002490 <sys_munmap>:
    80002490:	e6ffe06f          	j	800012fe <do_munmap>

0000000080002494 <sys_mremap>:
    80002494:	83eff06f          	j	800014d2 <do_mremap>

0000000080002498 <sys_mprotect>:
    80002498:	840ff06f          	j	800014d8 <do_mprotect>

000000008000249c <sys_rt_sigaction>:
    8000249c:	ce01                	beqz	a2,800024b4 <sys_rt_sigaction+0x18>
    8000249e:	1141                	addi	sp,sp,-16
    800024a0:	8532                	mv	a0,a2
    800024a2:	4581                	li	a1,0
    800024a4:	4661                	li	a2,24
    800024a6:	e406                	sd	ra,8(sp)
    800024a8:	5af050ef          	jal	ra,80008256 <memset>
    800024ac:	60a2                	ld	ra,8(sp)
    800024ae:	4501                	li	a0,0
    800024b0:	0141                	addi	sp,sp,16
    800024b2:	8082                	ret
    800024b4:	4501                	li	a0,0
    800024b6:	8082                	ret

00000000800024b8 <sys_stub_success>:
    800024b8:	4501                	li	a0,0
    800024ba:	8082                	ret

00000000800024bc <sys_getuid>:
    800024bc:	4501                	li	a0,0
    800024be:	8082                	ret

00000000800024c0 <do_syscall>:
    800024c0:	10500893          	li	a7,261
    800024c4:	0108ee63          	bltu	a7,a6,800024e0 <do_syscall+0x20>
    800024c8:	00381313          	slli	t1,a6,0x3
    800024cc:	00006897          	auipc	a7,0x6
    800024d0:	14488893          	addi	a7,a7,324 # 80008610 <syscall_table.3079>
    800024d4:	989a                	add	a7,a7,t1
    800024d6:	0008b303          	ld	t1,0(a7)
    800024da:	02030263          	beqz	t1,800024fe <do_syscall+0x3e>
    800024de:	8302                	jr	t1
    800024e0:	c0080893          	addi	a7,a6,-1024
    800024e4:	02600313          	li	t1,38
    800024e8:	01136b63          	bltu	t1,a7,800024fe <do_syscall+0x3e>
    800024ec:	00006317          	auipc	t1,0x6
    800024f0:	fec30313          	addi	t1,t1,-20 # 800084d8 <old_syscall_table.3080>
    800024f4:	088e                	slli	a7,a7,0x3
    800024f6:	989a                	add	a7,a7,t1
    800024f8:	0008b303          	ld	t1,0(a7)
    800024fc:	bff9                	j	800024da <do_syscall+0x1a>
    800024fe:	1141                	addi	sp,sp,-16
    80002500:	85c2                	mv	a1,a6
    80002502:	00007517          	auipc	a0,0x7
    80002506:	17650513          	addi	a0,a0,374 # 80009678 <softfloat_countLeadingZeros8+0x630>
    8000250a:	e406                	sd	ra,8(sp)
    8000250c:	8f7fe0ef          	jal	ra,80000e02 <do_panic>

0000000080002510 <send_ipi_many>:
    80002510:	88ae                	mv	a7,a1
    80002512:	00013817          	auipc	a6,0x13
    80002516:	c2683803          	ld	a6,-986(a6) # 80015138 <hart_mask>
    8000251a:	cd01                	beqz	a0,80002532 <send_ipi_many+0x22>
    8000251c:	34102673          	csrr	a2,mepc
    80002520:	000205b7          	lui	a1,0x20
    80002524:	3005a6f3          	csrrs	a3,mstatus,a1
    80002528:	611c                	ld	a5,0(a0)
    8000252a:	30069073          	csrw	mstatus,a3
    8000252e:	00f87833          	and	a6,a6,a5
    80002532:	8742                	mv	a4,a6
    80002534:	4681                	li	a3,0
    80002536:	0c080c63          	beqz	a6,8000260e <send_ipi_many+0xfe>
    8000253a:	6505                	lui	a0,0x1
    8000253c:	950a                	add	a0,a0,sp
    8000253e:	77fd                	lui	a5,0xfffff
    80002540:	00013317          	auipc	t1,0x13
    80002544:	b1830313          	addi	t1,t1,-1256 # 80015058 <disabled_hart_mask>
    80002548:	8d7d                	and	a0,a0,a5
    8000254a:	4e05                	li	t3,1
    8000254c:	f14025f3          	csrr	a1,mhartid
    80002550:	a021                	j	80002558 <send_ipi_many+0x48>
    80002552:	8305                	srli	a4,a4,0x1
    80002554:	0685                	addi	a3,a3,1
    80002556:	cf0d                	beqz	a4,80002590 <send_ipi_many+0x80>
    80002558:	00177793          	andi	a5,a4,1
    8000255c:	dbfd                	beqz	a5,80002552 <send_ipi_many+0x42>
    8000255e:	00033603          	ld	a2,0(t1)
    80002562:	40b687b3          	sub	a5,a3,a1
    80002566:	07b2                	slli	a5,a5,0xc
    80002568:	40d65633          	sra	a2,a2,a3
    8000256c:	8a05                	andi	a2,a2,1
    8000256e:	97aa                	add	a5,a5,a0
    80002570:	f26d                	bnez	a2,80002552 <send_ipi_many+0x42>
    80002572:	fc878613          	addi	a2,a5,-56 # ffffffffffffefc8 <_end+0xffffffff7ffe8fc8>
    80002576:	0f50000f          	fence	iorw,ow
    8000257a:	4516202f          	amoor.w.aq	zero,a7,(a2)
    8000257e:	0ff0000f          	fence
    80002582:	fc07b783          	ld	a5,-64(a5)
    80002586:	8305                	srli	a4,a4,0x1
    80002588:	0685                	addi	a3,a3,1
    8000258a:	01c7a023          	sw	t3,0(a5)
    8000258e:	f769                	bnez	a4,80002558 <send_ipi_many+0x48>
    80002590:	4785                	li	a5,1
    80002592:	06f88e63          	beq	a7,a5,8000260e <send_ipi_many+0xfe>
    80002596:	6505                	lui	a0,0x1
    80002598:	950a                	add	a0,a0,sp
    8000259a:	77fd                	lui	a5,0xfffff
    8000259c:	f1402373          	csrr	t1,mhartid
    800025a0:	4601                	li	a2,0
    800025a2:	8d7d                	and	a0,a0,a5
    800025a4:	4881                	li	a7,0
    800025a6:	8e1a                	mv	t3,t1
    800025a8:	a031                	j	800025b4 <send_ipi_many+0xa4>
    800025aa:	00185813          	srli	a6,a6,0x1
    800025ae:	0705                	addi	a4,a4,1
    800025b0:	04080463          	beqz	a6,800025f8 <send_ipi_many+0xe8>
    800025b4:	00187793          	andi	a5,a6,1
    800025b8:	dbed                	beqz	a5,800025aa <send_ipi_many+0x9a>
    800025ba:	406707b3          	sub	a5,a4,t1
    800025be:	07b2                	slli	a5,a5,0xc
    800025c0:	97aa                	add	a5,a5,a0
    800025c2:	fc07b783          	ld	a5,-64(a5) # ffffffffffffefc0 <_end+0xffffffff7ffe8fc0>
    800025c6:	439c                	lw	a5,0(a5)
    800025c8:	2781                	sext.w	a5,a5
    800025ca:	d3e5                	beqz	a5,800025aa <send_ipi_many+0x9a>
    800025cc:	41c705b3          	sub	a1,a4,t3
    800025d0:	05b2                	slli	a1,a1,0xc
    800025d2:	95aa                	add	a1,a1,a0
    800025d4:	fc053683          	ld	a3,-64(a0) # fc0 <MEM_START-0x7ffff040>
    800025d8:	87c6                	mv	a5,a7
    800025da:	0cf6a7af          	amoswap.w.aq	a5,a5,(a3)
    800025de:	fc05b683          	ld	a3,-64(a1) # 1ffc0 <MEM_START-0x7ffe0040>
    800025e2:	8fd1                	or	a5,a5,a2
    800025e4:	0007861b          	sext.w	a2,a5
    800025e8:	429c                	lw	a5,0(a3)
    800025ea:	2781                	sext.w	a5,a5
    800025ec:	f7e5                	bnez	a5,800025d4 <send_ipi_many+0xc4>
    800025ee:	00185813          	srli	a6,a6,0x1
    800025f2:	0705                	addi	a4,a4,1
    800025f4:	fc0810e3          	bnez	a6,800025b4 <send_ipi_many+0xa4>
    800025f8:	ca19                	beqz	a2,8000260e <send_ipi_many+0xfe>
    800025fa:	6785                	lui	a5,0x1
    800025fc:	978a                	add	a5,a5,sp
    800025fe:	777d                	lui	a4,0xfffff
    80002600:	8ff9                	and	a5,a5,a4
    80002602:	fc07b783          	ld	a5,-64(a5) # fc0 <MEM_START-0x7ffff040>
    80002606:	c390                	sw	a2,0(a5)
    80002608:	0ff0000f          	fence
    8000260c:	8082                	ret
    8000260e:	8082                	ret

0000000080002610 <mcall_console_putchar>:
    80002610:	1141                	addi	sp,sp,-16
    80002612:	e406                	sd	ra,8(sp)
    80002614:	00013797          	auipc	a5,0x13
    80002618:	b0c7b783          	ld	a5,-1268(a5) # 80015120 <uart>
    8000261c:	c799                	beqz	a5,8000262a <mcall_console_putchar+0x1a>
    8000261e:	105000ef          	jal	ra,80002f22 <uart_putchar>
    80002622:	60a2                	ld	ra,8(sp)
    80002624:	4501                	li	a0,0
    80002626:	0141                	addi	sp,sp,16
    80002628:	8082                	ret
    8000262a:	00013797          	auipc	a5,0x13
    8000262e:	afe7b783          	ld	a5,-1282(a5) # 80015128 <uart16550>
    80002632:	c799                	beqz	a5,80002640 <mcall_console_putchar+0x30>
    80002634:	2eb000ef          	jal	ra,8000311e <uart16550_putchar>
    80002638:	60a2                	ld	ra,8(sp)
    8000263a:	4501                	li	a0,0
    8000263c:	0141                	addi	sp,sp,16
    8000263e:	8082                	ret
    80002640:	00013797          	auipc	a5,0x13
    80002644:	ad07b783          	ld	a5,-1328(a5) # 80015110 <htif>
    80002648:	dfe9                	beqz	a5,80002622 <mcall_console_putchar+0x12>
    8000264a:	794000ef          	jal	ra,80002dde <htif_console_putchar>
    8000264e:	bfd1                	j	80002622 <mcall_console_putchar+0x12>

0000000080002650 <putstring>:
    80002650:	1141                	addi	sp,sp,-16
    80002652:	e022                	sd	s0,0(sp)
    80002654:	e406                	sd	ra,8(sp)
    80002656:	842a                	mv	s0,a0
    80002658:	00054503          	lbu	a0,0(a0)
    8000265c:	c519                	beqz	a0,8000266a <putstring+0x1a>
    8000265e:	0405                	addi	s0,s0,1
    80002660:	fb1ff0ef          	jal	ra,80002610 <mcall_console_putchar>
    80002664:	00044503          	lbu	a0,0(s0)
    80002668:	f97d                	bnez	a0,8000265e <putstring+0xe>
    8000266a:	60a2                	ld	ra,8(sp)
    8000266c:	6402                	ld	s0,0(sp)
    8000266e:	0141                	addi	sp,sp,16
    80002670:	8082                	ret

0000000080002672 <vprintm>:
    80002672:	716d                	addi	sp,sp,-272
    80002674:	862a                	mv	a2,a0
    80002676:	86ae                	mv	a3,a1
    80002678:	850a                	mv	a0,sp
    8000267a:	10000593          	li	a1,256
    8000267e:	e606                	sd	ra,264(sp)
    80002680:	e222                	sd	s0,256(sp)
    80002682:	131050ef          	jal	ra,80007fb2 <vsnprintf>
    80002686:	00014503          	lbu	a0,0(sp)
    8000268a:	c901                	beqz	a0,8000269a <vprintm+0x28>
    8000268c:	840a                	mv	s0,sp
    8000268e:	0405                	addi	s0,s0,1
    80002690:	f81ff0ef          	jal	ra,80002610 <mcall_console_putchar>
    80002694:	00044503          	lbu	a0,0(s0)
    80002698:	f97d                	bnez	a0,8000268e <vprintm+0x1c>
    8000269a:	60b2                	ld	ra,264(sp)
    8000269c:	6412                	ld	s0,256(sp)
    8000269e:	6151                	addi	sp,sp,272
    800026a0:	8082                	ret

00000000800026a2 <printm>:
    800026a2:	711d                	addi	sp,sp,-96
    800026a4:	02810313          	addi	t1,sp,40
    800026a8:	f42e                	sd	a1,40(sp)
    800026aa:	859a                	mv	a1,t1
    800026ac:	ec06                	sd	ra,24(sp)
    800026ae:	f832                	sd	a2,48(sp)
    800026b0:	fc36                	sd	a3,56(sp)
    800026b2:	e0ba                	sd	a4,64(sp)
    800026b4:	e4be                	sd	a5,72(sp)
    800026b6:	e8c2                	sd	a6,80(sp)
    800026b8:	ecc6                	sd	a7,88(sp)
    800026ba:	e41a                	sd	t1,8(sp)
    800026bc:	fb7ff0ef          	jal	ra,80002672 <vprintm>
    800026c0:	60e2                	ld	ra,24(sp)
    800026c2:	6125                	addi	sp,sp,96
    800026c4:	8082                	ret

00000000800026c6 <redirect_trap>:
    800026c6:	14361073          	csrw	stval,a2
    800026ca:	14151073          	csrw	sepc,a0
    800026ce:	342027f3          	csrr	a5,mcause
    800026d2:	14279073          	csrw	scause,a5
    800026d6:	105027f3          	csrr	a5,stvec
    800026da:	34179073          	csrw	mepc,a5
    800026de:	00459793          	slli	a5,a1,0x4
    800026e2:	0035d713          	srli	a4,a1,0x3
    800026e6:	10077713          	andi	a4,a4,256
    800026ea:	0207f793          	andi	a5,a5,32
    800026ee:	edd5f593          	andi	a1,a1,-291
    800026f2:	8fd9                	or	a5,a5,a4
    800026f4:	6705                	lui	a4,0x1
    800026f6:	8fcd                	or	a5,a5,a1
    800026f8:	80070713          	addi	a4,a4,-2048 # 800 <MEM_START-0x7ffff800>
    800026fc:	8fd9                	or	a5,a5,a4
    800026fe:	30079073          	csrw	mstatus,a5
    80002702:	ad7fd06f          	j	800001d8 <__redirect_trap>

0000000080002706 <pmp_trap>:
    80002706:	8532                	mv	a0,a2
    80002708:	300025f3          	csrr	a1,mstatus
    8000270c:	34302673          	csrr	a2,mtval
    80002710:	bf5d                	j	800026c6 <redirect_trap>

0000000080002712 <poweroff>:
    80002712:	1141                	addi	sp,sp,-16
    80002714:	e022                	sd	s0,0(sp)
    80002716:	842a                	mv	s0,a0
    80002718:	00007517          	auipc	a0,0x7
    8000271c:	f7850513          	addi	a0,a0,-136 # 80009690 <softfloat_countLeadingZeros8+0x648>
    80002720:	e406                	sd	ra,8(sp)
    80002722:	f81ff0ef          	jal	ra,800026a2 <printm>
    80002726:	8522                	mv	a0,s0
    80002728:	317000ef          	jal	ra,8000323e <finisher_exit>
    8000272c:	00013797          	auipc	a5,0x13
    80002730:	9e47b783          	ld	a5,-1564(a5) # 80015110 <htif>
    80002734:	c399                	beqz	a5,8000273a <poweroff+0x28>
    80002736:	704000ef          	jal	ra,80002e3a <htif_poweroff>
    8000273a:	45a1                	li	a1,8
    8000273c:	4501                	li	a0,0
    8000273e:	dd3ff0ef          	jal	ra,80002510 <send_ipi_many>
    80002742:	10500073          	wfi
    80002746:	bff5                	j	80002742 <poweroff+0x30>

0000000080002748 <bad_trap>:
    80002748:	1141                	addi	sp,sp,-16
    8000274a:	e406                	sd	ra,8(sp)
    8000274c:	8732                	mv	a4,a2
    8000274e:	342026f3          	csrr	a3,mcause
    80002752:	00007517          	auipc	a0,0x7
    80002756:	f6650513          	addi	a0,a0,-154 # 800096b8 <softfloat_countLeadingZeros8+0x670>
    8000275a:	4655                	li	a2,21
    8000275c:	00007597          	auipc	a1,0x7
    80002760:	f4458593          	addi	a1,a1,-188 # 800096a0 <softfloat_countLeadingZeros8+0x658>
    80002764:	f3fff0ef          	jal	ra,800026a2 <printm>
    80002768:	6541                	lui	a0,0x10
    8000276a:	157d                	addi	a0,a0,-1
    8000276c:	fa7ff0ef          	jal	ra,80002712 <poweroff>

0000000080002770 <trap_from_machine_mode>:
    80002770:	1141                	addi	sp,sp,-16
    80002772:	e406                	sd	ra,8(sp)
    80002774:	342027f3          	csrr	a5,mcause
    80002778:	473d                	li	a4,15
    8000277a:	06f76463          	bltu	a4,a5,800027e2 <trap_from_machine_mode+0x72>
    8000277e:	00006817          	auipc	a6,0x6
    80002782:	6c280813          	addi	a6,a6,1730 # 80008e40 <syscall_table.3079+0x830>
    80002786:	00279693          	slli	a3,a5,0x2
    8000278a:	96c2                	add	a3,a3,a6
    8000278c:	4298                	lw	a4,0(a3)
    8000278e:	9742                	add	a4,a4,a6
    80002790:	8702                	jr	a4
    80002792:	30002773          	csrr	a4,mstatus
    80002796:	02e71693          	slli	a3,a4,0x2e
    8000279a:	000205b7          	lui	a1,0x20
    8000279e:	0406d463          	bgez	a3,800027e6 <trap_from_machine_mode+0x76>
    800027a2:	6d38                	ld	a4,88(a0)
    800027a4:	000a06b7          	lui	a3,0xa0
    800027a8:	00d70b63          	beq	a4,a3,800027be <trap_from_machine_mode+0x4e>
    800027ac:	02b71d63          	bne	a4,a1,800027e6 <trap_from_machine_mode+0x76>
    800027b0:	34302673          	csrr	a2,mtval
    800027b4:	752c                	ld	a1,104(a0)
    800027b6:	60a2                	ld	ra,8(sp)
    800027b8:	7128                	ld	a0,96(a0)
    800027ba:	0141                	addi	sp,sp,16
    800027bc:	b729                	j	800026c6 <redirect_trap>
    800027be:	4735                	li	a4,13
    800027c0:	00e78e63          	beq	a5,a4,800027dc <trap_from_machine_mode+0x6c>
    800027c4:	4715                	li	a4,5
    800027c6:	02e79063          	bne	a5,a4,800027e6 <trap_from_machine_mode+0x76>
    800027ca:	3420d073          	csrwi	mcause,1
    800027ce:	34302673          	csrr	a2,mtval
    800027d2:	752c                	ld	a1,104(a0)
    800027d4:	60a2                	ld	ra,8(sp)
    800027d6:	7128                	ld	a0,96(a0)
    800027d8:	0141                	addi	sp,sp,16
    800027da:	b5f5                	j	800026c6 <redirect_trap>
    800027dc:	34265073          	csrwi	mcause,12
    800027e0:	bfc1                	j	800027b0 <trap_from_machine_mode+0x40>
    800027e2:	f67ff0ef          	jal	ra,80002748 <bad_trap>
    800027e6:	85be                	mv	a1,a5
    800027e8:	f61ff0ef          	jal	ra,80002748 <bad_trap>

00000000800027ec <mcall_trap>:
    800027ec:	1141                	addi	sp,sp,-16
    800027ee:	e022                	sd	s0,0(sp)
    800027f0:	e406                	sd	ra,8(sp)
    800027f2:	842a                	mv	s0,a0
    800027f4:	0611                	addi	a2,a2,4
    800027f6:	34161073          	csrw	mepc,a2
    800027fa:	655c                	ld	a5,136(a0)
    800027fc:	4721                	li	a4,8
    800027fe:	6928                	ld	a0,80(a0)
    80002800:	0af76e63          	bltu	a4,a5,800028bc <mcall_trap+0xd0>
    80002804:	00006617          	auipc	a2,0x6
    80002808:	67c60613          	addi	a2,a2,1660 # 80008e80 <syscall_table.3079+0x870>
    8000280c:	00279693          	slli	a3,a5,0x2
    80002810:	96b2                	add	a3,a3,a2
    80002812:	4298                	lw	a4,0(a3)
    80002814:	9732                	add	a4,a4,a2
    80002816:	8702                	jr	a4
    80002818:	4591                	li	a1,4
    8000281a:	cf7ff0ef          	jal	ra,80002510 <send_ipi_many>
    8000281e:	4781                	li	a5,0
    80002820:	60a2                	ld	ra,8(sp)
    80002822:	e83c                	sd	a5,80(s0)
    80002824:	6402                	ld	s0,0(sp)
    80002826:	0141                	addi	sp,sp,16
    80002828:	8082                	ret
    8000282a:	6705                	lui	a4,0x1
    8000282c:	970a                	add	a4,a4,sp
    8000282e:	76fd                	lui	a3,0xfffff
    80002830:	8f75                	and	a4,a4,a3
    80002832:	fd073703          	ld	a4,-48(a4) # fd0 <MEM_START-0x7ffff030>
    80002836:	e308                	sd	a0,0(a4)
    80002838:	02000713          	li	a4,32
    8000283c:	34473773          	csrrc	a4,mip,a4
    80002840:	08000713          	li	a4,128
    80002844:	30472773          	csrrs	a4,mie,a4
    80002848:	60a2                	ld	ra,8(sp)
    8000284a:	e83c                	sd	a5,80(s0)
    8000284c:	6402                	ld	s0,0(sp)
    8000284e:	0141                	addi	sp,sp,16
    80002850:	8082                	ret
    80002852:	0ff57513          	andi	a0,a0,255
    80002856:	dbbff0ef          	jal	ra,80002610 <mcall_console_putchar>
    8000285a:	87aa                	mv	a5,a0
    8000285c:	60a2                	ld	ra,8(sp)
    8000285e:	e83c                	sd	a5,80(s0)
    80002860:	6402                	ld	s0,0(sp)
    80002862:	0141                	addi	sp,sp,16
    80002864:	8082                	ret
    80002866:	00013797          	auipc	a5,0x13
    8000286a:	8ba7b783          	ld	a5,-1862(a5) # 80015120 <uart>
    8000286e:	e3b9                	bnez	a5,800028b4 <mcall_trap+0xc8>
    80002870:	00013797          	auipc	a5,0x13
    80002874:	8b87b783          	ld	a5,-1864(a5) # 80015128 <uart16550>
    80002878:	eb95                	bnez	a5,800028ac <mcall_trap+0xc0>
    8000287a:	00013797          	auipc	a5,0x13
    8000287e:	8967b783          	ld	a5,-1898(a5) # 80015110 <htif>
    80002882:	dfd9                	beqz	a5,80002820 <mcall_trap+0x34>
    80002884:	476000ef          	jal	ra,80002cfa <htif_console_getchar>
    80002888:	87aa                	mv	a5,a0
    8000288a:	bf59                	j	80002820 <mcall_trap+0x34>
    8000288c:	34417573          	csrrci	a0,mip,2
    80002890:	00257793          	andi	a5,a0,2
    80002894:	60a2                	ld	ra,8(sp)
    80002896:	e83c                	sd	a5,80(s0)
    80002898:	6402                	ld	s0,0(sp)
    8000289a:	0141                	addi	sp,sp,16
    8000289c:	8082                	ret
    8000289e:	4585                	li	a1,1
    800028a0:	bfad                	j	8000281a <mcall_trap+0x2e>
    800028a2:	4589                	li	a1,2
    800028a4:	bf9d                	j	8000281a <mcall_trap+0x2e>
    800028a6:	4501                	li	a0,0
    800028a8:	e6bff0ef          	jal	ra,80002712 <poweroff>
    800028ac:	09b000ef          	jal	ra,80003146 <uart16550_getchar>
    800028b0:	87aa                	mv	a5,a0
    800028b2:	b7bd                	j	80002820 <mcall_trap+0x34>
    800028b4:	686000ef          	jal	ra,80002f3a <uart_getchar>
    800028b8:	87aa                	mv	a5,a0
    800028ba:	b79d                	j	80002820 <mcall_trap+0x34>
    800028bc:	fa800793          	li	a5,-88
    800028c0:	b785                	j	80002820 <mcall_trap+0x34>
	...

00000000800028c4 <hart_init>:
    800028c4:	1141                	addi	sp,sp,-16
    800028c6:	301027f3          	csrr	a5,misa
    800028ca:	e406                	sd	ra,8(sp)
    800028cc:	0087f713          	andi	a4,a5,8
    800028d0:	e379                	bnez	a4,80002996 <hart_init+0xd2>
    800028d2:	0207f793          	andi	a5,a5,32
    800028d6:	e3e1                	bnez	a5,80002996 <hart_init+0xd2>
    800028d8:	301027f3          	csrr	a5,misa
    800028dc:	02d79713          	slli	a4,a5,0x2d
    800028e0:	00075563          	bgez	a4,800028ea <hart_init+0x26>
    800028e4:	57fd                	li	a5,-1
    800028e6:	10679073          	csrw	scounteren,a5
    800028ea:	301027f3          	csrr	a5,misa
    800028ee:	02b79713          	slli	a4,a5,0x2b
    800028f2:	00075563          	bgez	a4,800028fc <hart_init+0x38>
    800028f6:	57fd                	li	a5,-1
    800028f8:	30679073          	csrw	mcounteren,a5
    800028fc:	30445073          	csrwi	mie,8
    80002900:	301027f3          	csrr	a5,misa
    80002904:	02d79713          	slli	a4,a5,0x2d
    80002908:	00075463          	bgez	a4,80002910 <hart_init+0x4c>
    8000290c:	18005073          	csrwi	satp,0
    80002910:	301027f3          	csrr	a5,misa
    80002914:	0087f713          	andi	a4,a5,8
    80002918:	e701                	bnez	a4,80002920 <hart_init+0x5c>
    8000291a:	0207f793          	andi	a5,a5,32
    8000291e:	c785                	beqz	a5,80002946 <hart_init+0x82>
    80002920:	30002773          	csrr	a4,mstatus
    80002924:	6799                	lui	a5,0x6
    80002926:	8f7d                	and	a4,a4,a5
    80002928:	10000693          	li	a3,256
    8000292c:	4781                	li	a5,0
    8000292e:	cb25                	beqz	a4,8000299e <hart_init+0xda>
    80002930:	4501                	li	a0,0
    80002932:	00001717          	auipc	a4,0x1
    80002936:	973e                	add	a4,a4,a5
    80002938:	a68702e7          	jalr	t0,-1432(a4) # 8000339a <put_f32_reg>
    8000293c:	07a1                	addi	a5,a5,8
    8000293e:	fed799e3          	bne	a5,a3,80002930 <hart_init+0x6c>
    80002942:	00305073          	csrwi	fcsr,0
    80002946:	301027f3          	csrr	a5,misa
    8000294a:	02d79713          	slli	a4,a5,0x2d
    8000294e:	02075363          	bgez	a4,80002974 <hart_init+0xb0>
    80002952:	22200713          	li	a4,546
    80002956:	30371073          	csrw	mideleg,a4
    8000295a:	67ad                	lui	a5,0xb
    8000295c:	10978793          	addi	a5,a5,265 # b109 <MEM_START-0x7fff4ef7>
    80002960:	30279073          	csrw	medeleg,a5
    80002964:	303026f3          	csrr	a3,mideleg
    80002968:	06e69a63          	bne	a3,a4,800029dc <hart_init+0x118>
    8000296c:	30202773          	csrr	a4,medeleg
    80002970:	04f71b63          	bne	a4,a5,800029c6 <hart_init+0x102>
    80002974:	47fd                	li	a5,31
    80002976:	577d                	li	a4,-1
    80002978:	00000297          	auipc	t0,0x0
    8000297c:	01428293          	addi	t0,t0,20 # 8000298c <hart_init+0xc8>
    80002980:	305292f3          	csrrw	t0,mtvec,t0
    80002984:	3b071073          	csrw	pmpaddr0,a4
    80002988:	3a079073          	csrw	pmpcfg0,a5
    8000298c:	30529073          	csrw	mtvec,t0
    80002990:	60a2                	ld	ra,8(sp)
    80002992:	0141                	addi	sp,sp,16
    80002994:	8082                	ret
    80002996:	6799                	lui	a5,0x6
    80002998:	30079073          	csrw	mstatus,a5
    8000299c:	bf35                	j	800028d8 <hart_init+0x14>
    8000299e:	00007517          	auipc	a0,0x7
    800029a2:	89250513          	addi	a0,a0,-1902 # 80009230 <softfloat_countLeadingZeros8+0x1e8>
    800029a6:	00007697          	auipc	a3,0x7
    800029aa:	d4268693          	addi	a3,a3,-702 # 800096e8 <softfloat_countLeadingZeros8+0x6a0>
    800029ae:	04600613          	li	a2,70
    800029b2:	00007597          	auipc	a1,0x7
    800029b6:	d5658593          	addi	a1,a1,-682 # 80009708 <softfloat_countLeadingZeros8+0x6c0>
    800029ba:	ce9ff0ef          	jal	ra,800026a2 <printm>
    800029be:	6541                	lui	a0,0x10
    800029c0:	157d                	addi	a0,a0,-1
    800029c2:	d51ff0ef          	jal	ra,80002712 <poweroff>
    800029c6:	00007517          	auipc	a0,0x7
    800029ca:	86a50513          	addi	a0,a0,-1942 # 80009230 <softfloat_countLeadingZeros8+0x1e8>
    800029ce:	00007697          	auipc	a3,0x7
    800029d2:	d7268693          	addi	a3,a3,-654 # 80009740 <softfloat_countLeadingZeros8+0x6f8>
    800029d6:	03e00613          	li	a2,62
    800029da:	bfe1                	j	800029b2 <hart_init+0xee>
    800029dc:	00007517          	auipc	a0,0x7
    800029e0:	85450513          	addi	a0,a0,-1964 # 80009230 <softfloat_countLeadingZeros8+0x1e8>
    800029e4:	00007697          	auipc	a3,0x7
    800029e8:	d3c68693          	addi	a3,a3,-708 # 80009720 <softfloat_countLeadingZeros8+0x6d8>
    800029ec:	03d00613          	li	a2,61
    800029f0:	b7c9                	j	800029b2 <hart_init+0xee>

00000000800029f2 <hart_plic_init>:
    800029f2:	6605                	lui	a2,0x1
    800029f4:	960a                	add	a2,a2,sp
    800029f6:	77fd                	lui	a5,0xfffff
    800029f8:	8e7d                	and	a2,a2,a5
    800029fa:	fc063703          	ld	a4,-64(a2) # fc0 <MEM_START-0x7ffff040>
    800029fe:	fd063783          	ld	a5,-48(a2)
    80002a02:	00072023          	sw	zero,0(a4)
    80002a06:	577d                	li	a4,-1
    80002a08:	e398                	sd	a4,0(a5)
    80002a0a:	34405073          	csrwi	mip,0
    80002a0e:	00012697          	auipc	a3,0x12
    80002a12:	6ca6b683          	ld	a3,1738(a3) # 800150d8 <plic_ndevs>
    80002a16:	ce9d                	beqz	a3,80002a54 <hart_plic_init+0x62>
    80002a18:	03f68693          	addi	a3,a3,63
    80002a1c:	8299                	srli	a3,a3,0x6
    80002a1e:	ce91                	beqz	a3,80002a3a <hart_plic_init+0x48>
    80002a20:	ff063583          	ld	a1,-16(a2)
    80002a24:	068e                	slli	a3,a3,0x3
    80002a26:	4781                	li	a5,0
    80002a28:	557d                	li	a0,-1
    80002a2a:	c589                	beqz	a1,80002a34 <hart_plic_init+0x42>
    80002a2c:	ff063703          	ld	a4,-16(a2)
    80002a30:	973e                	add	a4,a4,a5
    80002a32:	e308                	sd	a0,0(a4)
    80002a34:	07a1                	addi	a5,a5,8
    80002a36:	fef69ae3          	bne	a3,a5,80002a2a <hart_plic_init+0x38>
    80002a3a:	6785                	lui	a5,0x1
    80002a3c:	777d                	lui	a4,0xfffff
    80002a3e:	978a                	add	a5,a5,sp
    80002a40:	8ff9                	and	a5,a5,a4
    80002a42:	fd87b703          	ld	a4,-40(a5) # fd8 <MEM_START-0x7ffff028>
    80002a46:	fe87b783          	ld	a5,-24(a5)
    80002a4a:	4685                	li	a3,1
    80002a4c:	c314                	sw	a3,0(a4)
    80002a4e:	c399                	beqz	a5,80002a54 <hart_plic_init+0x62>
    80002a50:	0007a023          	sw	zero,0(a5)
    80002a54:	8082                	ret

0000000080002a56 <hls_init>:
    80002a56:	f14027f3          	csrr	a5,mhartid
    80002a5a:	40f507b3          	sub	a5,a0,a5
    80002a5e:	6505                	lui	a0,0x1
    80002a60:	950a                	add	a0,a0,sp
    80002a62:	777d                	lui	a4,0xfffff
    80002a64:	07b2                	slli	a5,a5,0xc
    80002a66:	8d79                	and	a0,a0,a4
    80002a68:	fc078793          	addi	a5,a5,-64
    80002a6c:	953e                	add	a0,a0,a5
    80002a6e:	00053023          	sd	zero,0(a0) # 1000 <MEM_START-0x7ffff000>
    80002a72:	00053423          	sd	zero,8(a0)
    80002a76:	00053823          	sd	zero,16(a0)
    80002a7a:	00053c23          	sd	zero,24(a0)
    80002a7e:	02053023          	sd	zero,32(a0)
    80002a82:	02053423          	sd	zero,40(a0)
    80002a86:	02053823          	sd	zero,48(a0)
    80002a8a:	8082                	ret

0000000080002a8c <init_first_hart>:
    80002a8c:	1141                	addi	sp,sp,-16
    80002a8e:	852e                	mv	a0,a1
    80002a90:	e406                	sd	ra,8(sp)
    80002a92:	e022                	sd	s0,0(sp)
    80002a94:	842e                	mv	s0,a1
    80002a96:	4be000ef          	jal	ra,80002f54 <query_uart>
    80002a9a:	8522                	mv	a0,s0
    80002a9c:	6d4000ef          	jal	ra,80003170 <query_uart16550>
    80002aa0:	8522                	mv	a0,s0
    80002aa2:	3ae000ef          	jal	ra,80002e50 <query_htif>
    80002aa6:	00007517          	auipc	a0,0x7
    80002aaa:	cba50513          	addi	a0,a0,-838 # 80009760 <softfloat_countLeadingZeros8+0x718>
    80002aae:	bf5ff0ef          	jal	ra,800026a2 <printm>
    80002ab2:	e13ff0ef          	jal	ra,800028c4 <hart_init>
    80002ab6:	4501                	li	a0,0
    80002ab8:	f9fff0ef          	jal	ra,80002a56 <hls_init>
    80002abc:	8522                	mv	a0,s0
    80002abe:	7a8000ef          	jal	ra,80003266 <query_finisher>
    80002ac2:	8522                	mv	a0,s0
    80002ac4:	73f010ef          	jal	ra,80004a02 <query_mem>
    80002ac8:	8522                	mv	a0,s0
    80002aca:	7a5010ef          	jal	ra,80004a6e <query_harts>
    80002ace:	8522                	mv	a0,s0
    80002ad0:	01c020ef          	jal	ra,80004aec <query_clint>
    80002ad4:	8522                	mv	a0,s0
    80002ad6:	078020ef          	jal	ra,80004b4e <query_plic>
    80002ada:	8522                	mv	a0,s0
    80002adc:	11e020ef          	jal	ra,80004bfa <query_chosen>
    80002ae0:	00012597          	auipc	a1,0x12
    80002ae4:	5785b583          	ld	a1,1400(a1) # 80015058 <disabled_hart_mask>
    80002ae8:	00012797          	auipc	a5,0x12
    80002aec:	6507b783          	ld	a5,1616(a5) # 80015138 <hart_mask>
    80002af0:	fff5c593          	not	a1,a1
    80002af4:	6605                	lui	a2,0x1
    80002af6:	960a                	add	a2,a2,sp
    80002af8:	8dfd                	and	a1,a1,a5
    80002afa:	77fd                	lui	a5,0xfffff
    80002afc:	8e7d                	and	a2,a2,a5
    80002afe:	4701                	li	a4,0
    80002b00:	4885                	li	a7,1
    80002b02:	4821                	li	a6,8
    80002b04:	f1402573          	csrr	a0,mhartid
    80002b08:	40a707b3          	sub	a5,a4,a0
    80002b0c:	00e5d6b3          	srl	a3,a1,a4
    80002b10:	07b2                	slli	a5,a5,0xc
    80002b12:	8a85                	andi	a3,a3,1
    80002b14:	97b2                	add	a5,a5,a2
    80002b16:	0705                	addi	a4,a4,1
    80002b18:	c689                	beqz	a3,80002b22 <init_first_hart+0x96>
    80002b1a:	fc07b783          	ld	a5,-64(a5) # ffffffffffffefc0 <_end+0xffffffff7ffe8fc0>
    80002b1e:	0117a023          	sw	a7,0(a5)
    80002b22:	ff0713e3          	bne	a4,a6,80002b08 <init_first_hart+0x7c>
    80002b26:	00012797          	auipc	a5,0x12
    80002b2a:	5b27b783          	ld	a5,1458(a5) # 800150d8 <plic_ndevs>
    80002b2e:	c385                	beqz	a5,80002b4e <init_first_hart+0xc2>
    80002b30:	00012697          	auipc	a3,0x12
    80002b34:	5b06b683          	ld	a3,1456(a3) # 800150e0 <plic_priorities>
    80002b38:	00279713          	slli	a4,a5,0x2
    80002b3c:	4605                	li	a2,1
    80002b3e:	00468793          	addi	a5,a3,4
    80002b42:	96ba                	add	a3,a3,a4
    80002b44:	873e                	mv	a4,a5
    80002b46:	c390                	sw	a2,0(a5)
    80002b48:	0791                	addi	a5,a5,4
    80002b4a:	fed71de3          	bne	a4,a3,80002b44 <init_first_hart+0xb8>
    80002b4e:	ea5ff0ef          	jal	ra,800029f2 <hart_plic_init>
    80002b52:	00012717          	auipc	a4,0x12
    80002b56:	59670713          	addi	a4,a4,1430 # 800150e8 <mem_size>
    80002b5a:	631c                	ld	a5,0(a4)
    80002b5c:	8522                	mv	a0,s0
    80002b5e:	ffe006b7          	lui	a3,0xffe00
    80002b62:	6402                	ld	s0,0(sp)
    80002b64:	60a2                	ld	ra,8(sp)
    80002b66:	8ff5                	and	a5,a5,a3
    80002b68:	e31c                	sd	a5,0(a4)
    80002b6a:	0141                	addi	sp,sp,16
    80002b6c:	a59fd06f          	j	800005c4 <boot_loader>

0000000080002b70 <init_other_hart>:
    80002b70:	1141                	addi	sp,sp,-16
    80002b72:	e406                	sd	ra,8(sp)
    80002b74:	e022                	sd	s0,0(sp)
    80002b76:	842e                	mv	s0,a1
    80002b78:	d4dff0ef          	jal	ra,800028c4 <hart_init>
    80002b7c:	e77ff0ef          	jal	ra,800029f2 <hart_plic_init>
    80002b80:	8522                	mv	a0,s0
    80002b82:	6402                	ld	s0,0(sp)
    80002b84:	60a2                	ld	ra,8(sp)
    80002b86:	0141                	addi	sp,sp,16
    80002b88:	a75fd06f          	j	800005fc <boot_other_hart>

0000000080002b8c <setup_pmp>:
    80002b8c:	47fd                	li	a5,31
    80002b8e:	577d                	li	a4,-1
    80002b90:	00000297          	auipc	t0,0x0
    80002b94:	01428293          	addi	t0,t0,20 # 80002ba4 <setup_pmp+0x18>
    80002b98:	305292f3          	csrrw	t0,mtvec,t0
    80002b9c:	3b071073          	csrw	pmpaddr0,a4
    80002ba0:	3a079073          	csrw	pmpcfg0,a5
    80002ba4:	30529073          	csrw	mtvec,t0
    80002ba8:	8082                	ret

0000000080002baa <enter_supervisor_mode>:
    80002baa:	86aa                	mv	a3,a0
    80002bac:	852e                	mv	a0,a1
    80002bae:	85b2                	mv	a1,a2
    80002bb0:	30002773          	csrr	a4,mstatus
    80002bb4:	7679                	lui	a2,0xffffe
    80002bb6:	6785                	lui	a5,0x1
    80002bb8:	77f60613          	addi	a2,a2,1919 # ffffffffffffe77f <_end+0xffffffff7ffe877f>
    80002bbc:	8f71                	and	a4,a4,a2
    80002bbe:	80078613          	addi	a2,a5,-2048 # 800 <MEM_START-0x7ffff800>
    80002bc2:	8f51                	or	a4,a4,a2
    80002bc4:	30071073          	csrw	mstatus,a4
    80002bc8:	777d                	lui	a4,0xfffff
    80002bca:	978a                	add	a5,a5,sp
    80002bcc:	8ff9                	and	a5,a5,a4
    80002bce:	ec078793          	addi	a5,a5,-320
    80002bd2:	34079073          	csrw	mscratch,a5
    80002bd6:	34169073          	csrw	mepc,a3
    80002bda:	30200073          	mret

0000000080002bde <enter_machine_mode>:
    80002bde:	1141                	addi	sp,sp,-16
    80002be0:	872a                	mv	a4,a0
    80002be2:	e406                	sd	ra,8(sp)
    80002be4:	852e                	mv	a0,a1
    80002be6:	85b2                	mv	a1,a2
    80002be8:	300027f3          	csrr	a5,mstatus
    80002bec:	f7f7f793          	andi	a5,a5,-129
    80002bf0:	30079073          	csrw	mstatus,a5
    80002bf4:	6785                	lui	a5,0x1
    80002bf6:	978a                	add	a5,a5,sp
    80002bf8:	76fd                	lui	a3,0xfffff
    80002bfa:	8ff5                	and	a5,a5,a3
    80002bfc:	ec078793          	addi	a5,a5,-320 # ec0 <MEM_START-0x7ffff140>
    80002c00:	34079073          	csrw	mscratch,a5
    80002c04:	9702                	jalr	a4
	...

0000000080002c08 <htif_done>:
    80002c08:	419c                	lw	a5,0(a1)
    80002c0a:	c791                	beqz	a5,80002c16 <htif_done+0xe>
    80002c0c:	4785                	li	a5,1
    80002c0e:	00012717          	auipc	a4,0x12
    80002c12:	50f73123          	sd	a5,1282(a4) # 80015110 <htif>
    80002c16:	8082                	ret

0000000080002c18 <htif_open>:
    80002c18:	00058023          	sb	zero,0(a1)
    80002c1c:	000580a3          	sb	zero,1(a1)
    80002c20:	00058123          	sb	zero,2(a1)
    80002c24:	000581a3          	sb	zero,3(a1)
    80002c28:	8082                	ret

0000000080002c2a <__check_fromhost>:
    80002c2a:	00007797          	auipc	a5,0x7
    80002c2e:	3d67b783          	ld	a5,982(a5) # 8000a000 <fromhost>
    80002c32:	cf9d                	beqz	a5,80002c70 <__check_fromhost+0x46>
    80002c34:	1141                	addi	sp,sp,-16
    80002c36:	00007717          	auipc	a4,0x7
    80002c3a:	3c073523          	sd	zero,970(a4) # 8000a000 <fromhost>
    80002c3e:	e406                	sd	ra,8(sp)
    80002c40:	0387d693          	srli	a3,a5,0x38
    80002c44:	4705                	li	a4,1
    80002c46:	02e69663          	bne	a3,a4,80002c72 <__check_fromhost+0x48>
    80002c4a:	00879713          	slli	a4,a5,0x8
    80002c4e:	9361                	srli	a4,a4,0x38
    80002c50:	c711                	beqz	a4,80002c5c <__check_fromhost+0x32>
    80002c52:	04d71363          	bne	a4,a3,80002c98 <__check_fromhost+0x6e>
    80002c56:	60a2                	ld	ra,8(sp)
    80002c58:	0141                	addi	sp,sp,16
    80002c5a:	8082                	ret
    80002c5c:	60a2                	ld	ra,8(sp)
    80002c5e:	0ff7f793          	andi	a5,a5,255
    80002c62:	2785                	addiw	a5,a5,1
    80002c64:	00012717          	auipc	a4,0x12
    80002c68:	4af72a23          	sw	a5,1204(a4) # 80015118 <htif_console_buf>
    80002c6c:	0141                	addi	sp,sp,16
    80002c6e:	8082                	ret
    80002c70:	8082                	ret
    80002c72:	00006517          	auipc	a0,0x6
    80002c76:	5be50513          	addi	a0,a0,1470 # 80009230 <softfloat_countLeadingZeros8+0x1e8>
    80002c7a:	00007697          	auipc	a3,0x7
    80002c7e:	af668693          	addi	a3,a3,-1290 # 80009770 <softfloat_countLeadingZeros8+0x728>
    80002c82:	467d                	li	a2,31
    80002c84:	00007597          	auipc	a1,0x7
    80002c88:	b0458593          	addi	a1,a1,-1276 # 80009788 <softfloat_countLeadingZeros8+0x740>
    80002c8c:	a17ff0ef          	jal	ra,800026a2 <printm>
    80002c90:	6541                	lui	a0,0x10
    80002c92:	157d                	addi	a0,a0,-1
    80002c94:	a7fff0ef          	jal	ra,80002712 <poweroff>
    80002c98:	00006517          	auipc	a0,0x6
    80002c9c:	59850513          	addi	a0,a0,1432 # 80009230 <softfloat_countLeadingZeros8+0x1e8>
    80002ca0:	00006697          	auipc	a3,0x6
    80002ca4:	77868693          	addi	a3,a3,1912 # 80009418 <softfloat_countLeadingZeros8+0x3d0>
    80002ca8:	02700613          	li	a2,39
    80002cac:	00007597          	auipc	a1,0x7
    80002cb0:	adc58593          	addi	a1,a1,-1316 # 80009788 <softfloat_countLeadingZeros8+0x740>
    80002cb4:	9efff0ef          	jal	ra,800026a2 <printm>
    80002cb8:	6541                	lui	a0,0x10
    80002cba:	157d                	addi	a0,a0,-1
    80002cbc:	a57ff0ef          	jal	ra,80002712 <poweroff>

0000000080002cc0 <htif_prop>:
    80002cc0:	1101                	addi	sp,sp,-32
    80002cc2:	e822                	sd	s0,16(sp)
    80002cc4:	842a                	mv	s0,a0
    80002cc6:	6508                	ld	a0,8(a0)
    80002cc8:	e426                	sd	s1,8(sp)
    80002cca:	84ae                	mv	s1,a1
    80002ccc:	00007597          	auipc	a1,0x7
    80002cd0:	ad458593          	addi	a1,a1,-1324 # 800097a0 <softfloat_countLeadingZeros8+0x758>
    80002cd4:	ec06                	sd	ra,24(sp)
    80002cd6:	5e0050ef          	jal	ra,800082b6 <strcmp>
    80002cda:	e919                	bnez	a0,80002cf0 <htif_prop+0x30>
    80002cdc:	6808                	ld	a0,16(s0)
    80002cde:	00007597          	auipc	a1,0x7
    80002ce2:	ad258593          	addi	a1,a1,-1326 # 800097b0 <softfloat_countLeadingZeros8+0x768>
    80002ce6:	5d0050ef          	jal	ra,800082b6 <strcmp>
    80002cea:	e119                	bnez	a0,80002cf0 <htif_prop+0x30>
    80002cec:	4785                	li	a5,1
    80002cee:	c09c                	sw	a5,0(s1)
    80002cf0:	60e2                	ld	ra,24(sp)
    80002cf2:	6442                	ld	s0,16(sp)
    80002cf4:	64a2                	ld	s1,8(sp)
    80002cf6:	6105                	addi	sp,sp,32
    80002cf8:	8082                	ret

0000000080002cfa <htif_console_getchar>:
    80002cfa:	1101                	addi	sp,sp,-32
    80002cfc:	ec06                	sd	ra,24(sp)
    80002cfe:	e822                	sd	s0,16(sp)
    80002d00:	e426                	sd	s1,8(sp)
    80002d02:	00012717          	auipc	a4,0x12
    80002d06:	34e70713          	addi	a4,a4,846 # 80015050 <htif_lock>
    80002d0a:	56fd                	li	a3,-1
    80002d0c:	431c                	lw	a5,0(a4)
    80002d0e:	2781                	sext.w	a5,a5
    80002d10:	fff5                	bnez	a5,80002d0c <htif_console_getchar+0x12>
    80002d12:	87b6                	mv	a5,a3
    80002d14:	0cf727af          	amoswap.w.aq	a5,a5,(a4)
    80002d18:	2781                	sext.w	a5,a5
    80002d1a:	0ff0000f          	fence
    80002d1e:	f7fd                	bnez	a5,80002d0c <htif_console_getchar+0x12>
    80002d20:	f0bff0ef          	jal	ra,80002c2a <__check_fromhost>
    80002d24:	00012497          	auipc	s1,0x12
    80002d28:	3f44a483          	lw	s1,1012(s1) # 80015118 <htif_console_buf>
    80002d2c:	0204c463          	bltz	s1,80002d54 <htif_console_getchar+0x5a>
    80002d30:	57fd                	li	a5,-1
    80002d32:	00012717          	auipc	a4,0x12
    80002d36:	3ef72323          	sw	a5,998(a4) # 80015118 <htif_console_buf>
    80002d3a:	00007417          	auipc	s0,0x7
    80002d3e:	2c640413          	addi	s0,s0,710 # 8000a000 <fromhost>
    80002d42:	641c                	ld	a5,8(s0)
    80002d44:	c789                	beqz	a5,80002d4e <htif_console_getchar+0x54>
    80002d46:	ee5ff0ef          	jal	ra,80002c2a <__check_fromhost>
    80002d4a:	641c                	ld	a5,8(s0)
    80002d4c:	ffed                	bnez	a5,80002d46 <htif_console_getchar+0x4c>
    80002d4e:	4785                	li	a5,1
    80002d50:	17e2                	slli	a5,a5,0x38
    80002d52:	e41c                	sd	a5,8(s0)
    80002d54:	0ff0000f          	fence
    80002d58:	60e2                	ld	ra,24(sp)
    80002d5a:	6442                	ld	s0,16(sp)
    80002d5c:	00012797          	auipc	a5,0x12
    80002d60:	2e07aa23          	sw	zero,756(a5) # 80015050 <htif_lock>
    80002d64:	fff4851b          	addiw	a0,s1,-1
    80002d68:	64a2                	ld	s1,8(sp)
    80002d6a:	6105                	addi	sp,sp,32
    80002d6c:	8082                	ret

0000000080002d6e <htif_syscall>:
    80002d6e:	1101                	addi	sp,sp,-32
    80002d70:	e426                	sd	s1,8(sp)
    80002d72:	ec06                	sd	ra,24(sp)
    80002d74:	e822                	sd	s0,16(sp)
    80002d76:	84aa                	mv	s1,a0
    80002d78:	00012797          	auipc	a5,0x12
    80002d7c:	2d878793          	addi	a5,a5,728 # 80015050 <htif_lock>
    80002d80:	56fd                	li	a3,-1
    80002d82:	4398                	lw	a4,0(a5)
    80002d84:	2701                	sext.w	a4,a4
    80002d86:	ff75                	bnez	a4,80002d82 <htif_syscall+0x14>
    80002d88:	8736                	mv	a4,a3
    80002d8a:	0ce7a72f          	amoswap.w.aq	a4,a4,(a5)
    80002d8e:	2701                	sext.w	a4,a4
    80002d90:	0ff0000f          	fence
    80002d94:	f77d                	bnez	a4,80002d82 <htif_syscall+0x14>
    80002d96:	00007417          	auipc	s0,0x7
    80002d9a:	26a40413          	addi	s0,s0,618 # 8000a000 <fromhost>
    80002d9e:	641c                	ld	a5,8(s0)
    80002da0:	c789                	beqz	a5,80002daa <htif_syscall+0x3c>
    80002da2:	e89ff0ef          	jal	ra,80002c2a <__check_fromhost>
    80002da6:	641c                	ld	a5,8(s0)
    80002da8:	ffed                	bnez	a5,80002da2 <htif_syscall+0x34>
    80002daa:	e404                	sd	s1,8(s0)
    80002dac:	601c                	ld	a5,0(s0)
    80002dae:	dffd                	beqz	a5,80002dac <htif_syscall+0x3e>
    80002db0:	00879713          	slli	a4,a5,0x8
    80002db4:	8fd9                	or	a5,a5,a4
    80002db6:	93e1                	srli	a5,a5,0x38
    80002db8:	c781                	beqz	a5,80002dc0 <htif_syscall+0x52>
    80002dba:	e71ff0ef          	jal	ra,80002c2a <__check_fromhost>
    80002dbe:	b7fd                	j	80002dac <htif_syscall+0x3e>
    80002dc0:	00007797          	auipc	a5,0x7
    80002dc4:	2407b023          	sd	zero,576(a5) # 8000a000 <fromhost>
    80002dc8:	0ff0000f          	fence
    80002dcc:	60e2                	ld	ra,24(sp)
    80002dce:	6442                	ld	s0,16(sp)
    80002dd0:	00012797          	auipc	a5,0x12
    80002dd4:	2807a023          	sw	zero,640(a5) # 80015050 <htif_lock>
    80002dd8:	64a2                	ld	s1,8(sp)
    80002dda:	6105                	addi	sp,sp,32
    80002ddc:	8082                	ret

0000000080002dde <htif_console_putchar>:
    80002dde:	1101                	addi	sp,sp,-32
    80002de0:	e426                	sd	s1,8(sp)
    80002de2:	ec06                	sd	ra,24(sp)
    80002de4:	e822                	sd	s0,16(sp)
    80002de6:	84aa                	mv	s1,a0
    80002de8:	00012717          	auipc	a4,0x12
    80002dec:	26870713          	addi	a4,a4,616 # 80015050 <htif_lock>
    80002df0:	56fd                	li	a3,-1
    80002df2:	431c                	lw	a5,0(a4)
    80002df4:	2781                	sext.w	a5,a5
    80002df6:	fff5                	bnez	a5,80002df2 <htif_console_putchar+0x14>
    80002df8:	87b6                	mv	a5,a3
    80002dfa:	0cf727af          	amoswap.w.aq	a5,a5,(a4)
    80002dfe:	2781                	sext.w	a5,a5
    80002e00:	0ff0000f          	fence
    80002e04:	f7fd                	bnez	a5,80002df2 <htif_console_putchar+0x14>
    80002e06:	00007417          	auipc	s0,0x7
    80002e0a:	1fa40413          	addi	s0,s0,506 # 8000a000 <fromhost>
    80002e0e:	641c                	ld	a5,8(s0)
    80002e10:	c789                	beqz	a5,80002e1a <htif_console_putchar+0x3c>
    80002e12:	e19ff0ef          	jal	ra,80002c2a <__check_fromhost>
    80002e16:	641c                	ld	a5,8(s0)
    80002e18:	ffed                	bnez	a5,80002e12 <htif_console_putchar+0x34>
    80002e1a:	10100513          	li	a0,257
    80002e1e:	1542                	slli	a0,a0,0x30
    80002e20:	8cc9                	or	s1,s1,a0
    80002e22:	e404                	sd	s1,8(s0)
    80002e24:	0ff0000f          	fence
    80002e28:	60e2                	ld	ra,24(sp)
    80002e2a:	6442                	ld	s0,16(sp)
    80002e2c:	00012797          	auipc	a5,0x12
    80002e30:	2207a223          	sw	zero,548(a5) # 80015050 <htif_lock>
    80002e34:	64a2                	ld	s1,8(sp)
    80002e36:	6105                	addi	sp,sp,32
    80002e38:	8082                	ret

0000000080002e3a <htif_poweroff>:
    80002e3a:	00007717          	auipc	a4,0x7
    80002e3e:	1c670713          	addi	a4,a4,454 # 8000a000 <fromhost>
    80002e42:	4785                	li	a5,1
    80002e44:	00007697          	auipc	a3,0x7
    80002e48:	1a06be23          	sd	zero,444(a3) # 8000a000 <fromhost>
    80002e4c:	e71c                	sd	a5,8(a4)
    80002e4e:	bfdd                	j	80002e44 <htif_poweroff+0xa>

0000000080002e50 <query_htif>:
    80002e50:	7139                	addi	sp,sp,-64
    80002e52:	00000797          	auipc	a5,0x0
    80002e56:	dc678793          	addi	a5,a5,-570 # 80002c18 <htif_open>
    80002e5a:	e43e                	sd	a5,8(sp)
    80002e5c:	00000797          	auipc	a5,0x0
    80002e60:	e6478793          	addi	a5,a5,-412 # 80002cc0 <htif_prop>
    80002e64:	e83e                	sd	a5,16(sp)
    80002e66:	002c                	addi	a1,sp,8
    80002e68:	00000797          	auipc	a5,0x0
    80002e6c:	da078793          	addi	a5,a5,-608 # 80002c08 <htif_done>
    80002e70:	fc06                	sd	ra,56(sp)
    80002e72:	f002                	sd	zero,32(sp)
    80002e74:	ec3e                	sd	a5,24(sp)
    80002e76:	f40a                	sd	sp,40(sp)
    80002e78:	69e010ef          	jal	ra,80004516 <fdt_scan>
    80002e7c:	70e2                	ld	ra,56(sp)
    80002e7e:	6121                	addi	sp,sp,64
    80002e80:	8082                	ret

0000000080002e82 <uart_done>:
    80002e82:	419c                	lw	a5,0(a1)
    80002e84:	cb89                	beqz	a5,80002e96 <uart_done+0x14>
    80002e86:	659c                	ld	a5,8(a1)
    80002e88:	c799                	beqz	a5,80002e96 <uart_done+0x14>
    80002e8a:	00012717          	auipc	a4,0x12
    80002e8e:	29670713          	addi	a4,a4,662 # 80015120 <uart>
    80002e92:	6314                	ld	a3,0(a4)
    80002e94:	c291                	beqz	a3,80002e98 <uart_done+0x16>
    80002e96:	8082                	ret
    80002e98:	4685                	li	a3,1
    80002e9a:	c794                	sw	a3,8(a5)
    80002e9c:	e31c                	sd	a5,0(a4)
    80002e9e:	c7d4                	sw	a3,12(a5)
    80002ea0:	8082                	ret

0000000080002ea2 <uart_open>:
    80002ea2:	852e                	mv	a0,a1
    80002ea4:	4641                	li	a2,16
    80002ea6:	4581                	li	a1,0
    80002ea8:	3ae0506f          	j	80008256 <memset>

0000000080002eac <uart_prop>:
    80002eac:	1101                	addi	sp,sp,-32
    80002eae:	e04a                	sd	s2,0(sp)
    80002eb0:	00853903          	ld	s2,8(a0) # 10008 <MEM_START-0x7ffefff8>
    80002eb4:	e822                	sd	s0,16(sp)
    80002eb6:	e426                	sd	s1,8(sp)
    80002eb8:	842a                	mv	s0,a0
    80002eba:	84ae                	mv	s1,a1
    80002ebc:	854a                	mv	a0,s2
    80002ebe:	00007597          	auipc	a1,0x7
    80002ec2:	8e258593          	addi	a1,a1,-1822 # 800097a0 <softfloat_countLeadingZeros8+0x758>
    80002ec6:	ec06                	sd	ra,24(sp)
    80002ec8:	3ee050ef          	jal	ra,800082b6 <strcmp>
    80002ecc:	e909                	bnez	a0,80002ede <uart_prop+0x32>
    80002ece:	6808                	ld	a0,16(s0)
    80002ed0:	00007597          	auipc	a1,0x7
    80002ed4:	8f058593          	addi	a1,a1,-1808 # 800097c0 <softfloat_countLeadingZeros8+0x778>
    80002ed8:	3de050ef          	jal	ra,800082b6 <strcmp>
    80002edc:	cd19                	beqz	a0,80002efa <uart_prop+0x4e>
    80002ede:	00007597          	auipc	a1,0x7
    80002ee2:	8f258593          	addi	a1,a1,-1806 # 800097d0 <softfloat_countLeadingZeros8+0x788>
    80002ee6:	854a                	mv	a0,s2
    80002ee8:	3ce050ef          	jal	ra,800082b6 <strcmp>
    80002eec:	cd19                	beqz	a0,80002f0a <uart_prop+0x5e>
    80002eee:	60e2                	ld	ra,24(sp)
    80002ef0:	6442                	ld	s0,16(sp)
    80002ef2:	64a2                	ld	s1,8(sp)
    80002ef4:	6902                	ld	s2,0(sp)
    80002ef6:	6105                	addi	sp,sp,32
    80002ef8:	8082                	ret
    80002efa:	60e2                	ld	ra,24(sp)
    80002efc:	6442                	ld	s0,16(sp)
    80002efe:	4785                	li	a5,1
    80002f00:	c09c                	sw	a5,0(s1)
    80002f02:	6902                	ld	s2,0(sp)
    80002f04:	64a2                	ld	s1,8(sp)
    80002f06:	6105                	addi	sp,sp,32
    80002f08:	8082                	ret
    80002f0a:	601c                	ld	a5,0(s0)
    80002f0c:	680c                	ld	a1,16(s0)
    80002f0e:	6442                	ld	s0,16(sp)
    80002f10:	60e2                	ld	ra,24(sp)
    80002f12:	6902                	ld	s2,0(sp)
    80002f14:	6388                	ld	a0,0(a5)
    80002f16:	00848613          	addi	a2,s1,8
    80002f1a:	64a2                	ld	s1,8(sp)
    80002f1c:	6105                	addi	sp,sp,32
    80002f1e:	72e0106f          	j	8000464c <fdt_get_address>

0000000080002f22 <uart_putchar>:
    80002f22:	00012697          	auipc	a3,0x12
    80002f26:	1fe68693          	addi	a3,a3,510 # 80015120 <uart>
    80002f2a:	629c                	ld	a5,0(a3)
    80002f2c:	40a7a72f          	amoor.w	a4,a0,(a5)
    80002f30:	02071793          	slli	a5,a4,0x20
    80002f34:	fe07cbe3          	bltz	a5,80002f2a <uart_putchar+0x8>
    80002f38:	8082                	ret

0000000080002f3a <uart_getchar>:
    80002f3a:	00012797          	auipc	a5,0x12
    80002f3e:	1e67b783          	ld	a5,486(a5) # 80015120 <uart>
    80002f42:	43dc                	lw	a5,4(a5)
    80002f44:	2781                	sext.w	a5,a5
    80002f46:	0007851b          	sext.w	a0,a5
    80002f4a:	0007c363          	bltz	a5,80002f50 <uart_getchar+0x16>
    80002f4e:	8082                	ret
    80002f50:	557d                	li	a0,-1
    80002f52:	8082                	ret

0000000080002f54 <query_uart>:
    80002f54:	715d                	addi	sp,sp,-80
    80002f56:	00000797          	auipc	a5,0x0
    80002f5a:	f4c78793          	addi	a5,a5,-180 # 80002ea2 <uart_open>
    80002f5e:	ec3e                	sd	a5,24(sp)
    80002f60:	00000797          	auipc	a5,0x0
    80002f64:	f4c78793          	addi	a5,a5,-180 # 80002eac <uart_prop>
    80002f68:	f03e                	sd	a5,32(sp)
    80002f6a:	00000797          	auipc	a5,0x0
    80002f6e:	f1878793          	addi	a5,a5,-232 # 80002e82 <uart_done>
    80002f72:	f43e                	sd	a5,40(sp)
    80002f74:	082c                	addi	a1,sp,24
    80002f76:	003c                	addi	a5,sp,8
    80002f78:	e486                	sd	ra,72(sp)
    80002f7a:	f802                	sd	zero,48(sp)
    80002f7c:	fc3e                	sd	a5,56(sp)
    80002f7e:	598010ef          	jal	ra,80004516 <fdt_scan>
    80002f82:	60a6                	ld	ra,72(sp)
    80002f84:	6161                	addi	sp,sp,80
    80002f86:	8082                	ret

0000000080002f88 <uart16550_done>:
    80002f88:	419c                	lw	a5,0(a1)
    80002f8a:	cb89                	beqz	a5,80002f9c <uart16550_done+0x14>
    80002f8c:	6594                	ld	a3,8(a1)
    80002f8e:	c699                	beqz	a3,80002f9c <uart16550_done+0x14>
    80002f90:	00012717          	auipc	a4,0x12
    80002f94:	19870713          	addi	a4,a4,408 # 80015128 <uart16550>
    80002f98:	631c                	ld	a5,0(a4)
    80002f9a:	c391                	beqz	a5,80002f9e <uart16550_done+0x16>
    80002f9c:	8082                	ret
    80002f9e:	4d9c                	lw	a5,24(a1)
    80002fa0:	efb5                	bnez	a5,8000301c <uart16550_done+0x94>
    80002fa2:	00008797          	auipc	a5,0x8
    80002fa6:	5067a783          	lw	a5,1286(a5) # 8000b4a8 <uart16550_clock>
    80002faa:	00096637          	lui	a2,0x96
    80002fae:	02c7d7bb          	divuw	a5,a5,a2
    80002fb2:	49c8                	lw	a0,20(a1)
    80002fb4:	0105e603          	lwu	a2,16(a1)
    80002fb8:	4585                	li	a1,1
    80002fba:	00a595bb          	sllw	a1,a1,a0
    80002fbe:	96b2                	add	a3,a3,a2
    80002fc0:	e314                	sd	a3,0(a4)
    80002fc2:	96ae                	add	a3,a3,a1
    80002fc4:	00068023          	sb	zero,0(a3)
    80002fc8:	6310                	ld	a2,0(a4)
    80002fca:	468d                	li	a3,3
    80002fcc:	00a696bb          	sllw	a3,a3,a0
    80002fd0:	9636                	add	a2,a2,a3
    80002fd2:	f8000813          	li	a6,-128
    80002fd6:	01060023          	sb	a6,0(a2) # 96000 <MEM_START-0x7ff6a000>
    80002fda:	00073803          	ld	a6,0(a4)
    80002fde:	4609                	li	a2,2
    80002fe0:	00a6163b          	sllw	a2,a2,a0
    80002fe4:	00012897          	auipc	a7,0x12
    80002fe8:	06a8a823          	sw	a0,112(a7) # 80015054 <uart16550_reg_shift>
    80002fec:	0ff7f513          	andi	a0,a5,255
    80002ff0:	00a80023          	sb	a0,0(a6)
    80002ff4:	6308                	ld	a0,0(a4)
    80002ff6:	0087d79b          	srliw	a5,a5,0x8
    80002ffa:	0ff7f793          	andi	a5,a5,255
    80002ffe:	95aa                	add	a1,a1,a0
    80003000:	00f58023          	sb	a5,0(a1)
    80003004:	631c                	ld	a5,0(a4)
    80003006:	96be                	add	a3,a3,a5
    80003008:	478d                	li	a5,3
    8000300a:	00f68023          	sb	a5,0(a3)
    8000300e:	631c                	ld	a5,0(a4)
    80003010:	fc700713          	li	a4,-57
    80003014:	97b2                	add	a5,a5,a2
    80003016:	00e78023          	sb	a4,0(a5)
    8000301a:	8082                	ret
    8000301c:	00008617          	auipc	a2,0x8
    80003020:	48f62623          	sw	a5,1164(a2) # 8000b4a8 <uart16550_clock>
    80003024:	b759                	j	80002faa <uart16550_done+0x22>

0000000080003026 <uart16550_open>:
    80003026:	852e                	mv	a0,a1
    80003028:	02000613          	li	a2,32
    8000302c:	4581                	li	a1,0
    8000302e:	2280506f          	j	80008256 <memset>

0000000080003032 <uart16550_prop>:
    80003032:	1101                	addi	sp,sp,-32
    80003034:	e426                	sd	s1,8(sp)
    80003036:	6504                	ld	s1,8(a0)
    80003038:	e822                	sd	s0,16(sp)
    8000303a:	e04a                	sd	s2,0(sp)
    8000303c:	842a                	mv	s0,a0
    8000303e:	892e                	mv	s2,a1
    80003040:	8526                	mv	a0,s1
    80003042:	00006597          	auipc	a1,0x6
    80003046:	75e58593          	addi	a1,a1,1886 # 800097a0 <softfloat_countLeadingZeros8+0x758>
    8000304a:	ec06                	sd	ra,24(sp)
    8000304c:	26a050ef          	jal	ra,800082b6 <strcmp>
    80003050:	c539                	beqz	a0,8000309e <uart16550_prop+0x6c>
    80003052:	00006597          	auipc	a1,0x6
    80003056:	77e58593          	addi	a1,a1,1918 # 800097d0 <softfloat_countLeadingZeros8+0x788>
    8000305a:	8526                	mv	a0,s1
    8000305c:	25a050ef          	jal	ra,800082b6 <strcmp>
    80003060:	c135                	beqz	a0,800030c4 <uart16550_prop+0x92>
    80003062:	00006597          	auipc	a1,0x6
    80003066:	78658593          	addi	a1,a1,1926 # 800097e8 <softfloat_countLeadingZeros8+0x7a0>
    8000306a:	8526                	mv	a0,s1
    8000306c:	24a050ef          	jal	ra,800082b6 <strcmp>
    80003070:	c535                	beqz	a0,800030dc <uart16550_prop+0xaa>
    80003072:	00006597          	auipc	a1,0x6
    80003076:	78658593          	addi	a1,a1,1926 # 800097f8 <softfloat_countLeadingZeros8+0x7b0>
    8000307a:	8526                	mv	a0,s1
    8000307c:	23a050ef          	jal	ra,800082b6 <strcmp>
    80003080:	c149                	beqz	a0,80003102 <uart16550_prop+0xd0>
    80003082:	00006597          	auipc	a1,0x6
    80003086:	78658593          	addi	a1,a1,1926 # 80009808 <softfloat_countLeadingZeros8+0x7c0>
    8000308a:	8526                	mv	a0,s1
    8000308c:	22a050ef          	jal	ra,800082b6 <strcmp>
    80003090:	c135                	beqz	a0,800030f4 <uart16550_prop+0xc2>
    80003092:	60e2                	ld	ra,24(sp)
    80003094:	6442                	ld	s0,16(sp)
    80003096:	64a2                	ld	s1,8(sp)
    80003098:	6902                	ld	s2,0(sp)
    8000309a:	6105                	addi	sp,sp,32
    8000309c:	8082                	ret
    8000309e:	00006597          	auipc	a1,0x6
    800030a2:	73a58593          	addi	a1,a1,1850 # 800097d8 <softfloat_countLeadingZeros8+0x790>
    800030a6:	8522                	mv	a0,s0
    800030a8:	6ba010ef          	jal	ra,80004762 <fdt_string_list_index>
    800030ac:	57fd                	li	a5,-1
    800030ae:	06f50663          	beq	a0,a5,8000311a <uart16550_prop+0xe8>
    800030b2:	60e2                	ld	ra,24(sp)
    800030b4:	6442                	ld	s0,16(sp)
    800030b6:	4785                	li	a5,1
    800030b8:	00f92023          	sw	a5,0(s2)
    800030bc:	64a2                	ld	s1,8(sp)
    800030be:	6902                	ld	s2,0(sp)
    800030c0:	6105                	addi	sp,sp,32
    800030c2:	8082                	ret
    800030c4:	601c                	ld	a5,0(s0)
    800030c6:	680c                	ld	a1,16(s0)
    800030c8:	6442                	ld	s0,16(sp)
    800030ca:	60e2                	ld	ra,24(sp)
    800030cc:	64a2                	ld	s1,8(sp)
    800030ce:	6388                	ld	a0,0(a5)
    800030d0:	00890613          	addi	a2,s2,8
    800030d4:	6902                	ld	s2,0(sp)
    800030d6:	6105                	addi	sp,sp,32
    800030d8:	5740106f          	j	8000464c <fdt_get_address>
    800030dc:	8522                	mv	a0,s0
    800030de:	4581                	li	a1,0
    800030e0:	64c010ef          	jal	ra,8000472c <fdt_get_value>
    800030e4:	60e2                	ld	ra,24(sp)
    800030e6:	6442                	ld	s0,16(sp)
    800030e8:	00a92a23          	sw	a0,20(s2)
    800030ec:	64a2                	ld	s1,8(sp)
    800030ee:	6902                	ld	s2,0(sp)
    800030f0:	6105                	addi	sp,sp,32
    800030f2:	8082                	ret
    800030f4:	4581                	li	a1,0
    800030f6:	8522                	mv	a0,s0
    800030f8:	634010ef          	jal	ra,8000472c <fdt_get_value>
    800030fc:	00a92c23          	sw	a0,24(s2)
    80003100:	bf49                	j	80003092 <uart16550_prop+0x60>
    80003102:	8522                	mv	a0,s0
    80003104:	4581                	li	a1,0
    80003106:	626010ef          	jal	ra,8000472c <fdt_get_value>
    8000310a:	60e2                	ld	ra,24(sp)
    8000310c:	6442                	ld	s0,16(sp)
    8000310e:	00a92823          	sw	a0,16(s2)
    80003112:	64a2                	ld	s1,8(sp)
    80003114:	6902                	ld	s2,0(sp)
    80003116:	6105                	addi	sp,sp,32
    80003118:	8082                	ret
    8000311a:	6404                	ld	s1,8(s0)
    8000311c:	bf1d                	j	80003052 <uart16550_prop+0x20>

000000008000311e <uart16550_putchar>:
    8000311e:	00012797          	auipc	a5,0x12
    80003122:	f367a783          	lw	a5,-202(a5) # 80015054 <uart16550_reg_shift>
    80003126:	4715                	li	a4,5
    80003128:	00012697          	auipc	a3,0x12
    8000312c:	0006b683          	ld	a3,0(a3) # 80015128 <uart16550>
    80003130:	00f7173b          	sllw	a4,a4,a5
    80003134:	9736                	add	a4,a4,a3
    80003136:	00074783          	lbu	a5,0(a4)
    8000313a:	0207f793          	andi	a5,a5,32
    8000313e:	dfe5                	beqz	a5,80003136 <uart16550_putchar+0x18>
    80003140:	00a68023          	sb	a0,0(a3)
    80003144:	8082                	ret

0000000080003146 <uart16550_getchar>:
    80003146:	00012697          	auipc	a3,0x12
    8000314a:	f0e6a683          	lw	a3,-242(a3) # 80015054 <uart16550_reg_shift>
    8000314e:	4795                	li	a5,5
    80003150:	00012717          	auipc	a4,0x12
    80003154:	fd873703          	ld	a4,-40(a4) # 80015128 <uart16550>
    80003158:	00d797bb          	sllw	a5,a5,a3
    8000315c:	97ba                	add	a5,a5,a4
    8000315e:	0007c783          	lbu	a5,0(a5)
    80003162:	8b85                	andi	a5,a5,1
    80003164:	c781                	beqz	a5,8000316c <uart16550_getchar+0x26>
    80003166:	00074503          	lbu	a0,0(a4)
    8000316a:	8082                	ret
    8000316c:	557d                	li	a0,-1
    8000316e:	8082                	ret

0000000080003170 <query_uart16550>:
    80003170:	711d                	addi	sp,sp,-96
    80003172:	00000797          	auipc	a5,0x0
    80003176:	eb478793          	addi	a5,a5,-332 # 80003026 <uart16550_open>
    8000317a:	f43e                	sd	a5,40(sp)
    8000317c:	00000797          	auipc	a5,0x0
    80003180:	eb678793          	addi	a5,a5,-330 # 80003032 <uart16550_prop>
    80003184:	f83e                	sd	a5,48(sp)
    80003186:	00000797          	auipc	a5,0x0
    8000318a:	e0278793          	addi	a5,a5,-510 # 80002f88 <uart16550_done>
    8000318e:	fc3e                	sd	a5,56(sp)
    80003190:	102c                	addi	a1,sp,40
    80003192:	003c                	addi	a5,sp,8
    80003194:	ec86                	sd	ra,88(sp)
    80003196:	e082                	sd	zero,64(sp)
    80003198:	e4be                	sd	a5,72(sp)
    8000319a:	37c010ef          	jal	ra,80004516 <fdt_scan>
    8000319e:	60e6                	ld	ra,88(sp)
    800031a0:	6125                	addi	sp,sp,96
    800031a2:	8082                	ret

00000000800031a4 <finisher_done>:
    800031a4:	419c                	lw	a5,0(a1)
    800031a6:	cb89                	beqz	a5,800031b8 <finisher_done+0x14>
    800031a8:	659c                	ld	a5,8(a1)
    800031aa:	c799                	beqz	a5,800031b8 <finisher_done+0x14>
    800031ac:	00012717          	auipc	a4,0x12
    800031b0:	f8470713          	addi	a4,a4,-124 # 80015130 <finisher>
    800031b4:	6314                	ld	a3,0(a4)
    800031b6:	c291                	beqz	a3,800031ba <finisher_done+0x16>
    800031b8:	8082                	ret
    800031ba:	e31c                	sd	a5,0(a4)
    800031bc:	8082                	ret

00000000800031be <finisher_open>:
    800031be:	852e                	mv	a0,a1
    800031c0:	4641                	li	a2,16
    800031c2:	4581                	li	a1,0
    800031c4:	0920506f          	j	80008256 <memset>

00000000800031c8 <finisher_prop>:
    800031c8:	1101                	addi	sp,sp,-32
    800031ca:	e04a                	sd	s2,0(sp)
    800031cc:	00853903          	ld	s2,8(a0)
    800031d0:	e822                	sd	s0,16(sp)
    800031d2:	e426                	sd	s1,8(sp)
    800031d4:	842a                	mv	s0,a0
    800031d6:	84ae                	mv	s1,a1
    800031d8:	854a                	mv	a0,s2
    800031da:	00006597          	auipc	a1,0x6
    800031de:	5c658593          	addi	a1,a1,1478 # 800097a0 <softfloat_countLeadingZeros8+0x758>
    800031e2:	ec06                	sd	ra,24(sp)
    800031e4:	0d2050ef          	jal	ra,800082b6 <strcmp>
    800031e8:	e909                	bnez	a0,800031fa <finisher_prop+0x32>
    800031ea:	6808                	ld	a0,16(s0)
    800031ec:	00006597          	auipc	a1,0x6
    800031f0:	62c58593          	addi	a1,a1,1580 # 80009818 <softfloat_countLeadingZeros8+0x7d0>
    800031f4:	0c2050ef          	jal	ra,800082b6 <strcmp>
    800031f8:	cd19                	beqz	a0,80003216 <finisher_prop+0x4e>
    800031fa:	00006597          	auipc	a1,0x6
    800031fe:	5d658593          	addi	a1,a1,1494 # 800097d0 <softfloat_countLeadingZeros8+0x788>
    80003202:	854a                	mv	a0,s2
    80003204:	0b2050ef          	jal	ra,800082b6 <strcmp>
    80003208:	cd19                	beqz	a0,80003226 <finisher_prop+0x5e>
    8000320a:	60e2                	ld	ra,24(sp)
    8000320c:	6442                	ld	s0,16(sp)
    8000320e:	64a2                	ld	s1,8(sp)
    80003210:	6902                	ld	s2,0(sp)
    80003212:	6105                	addi	sp,sp,32
    80003214:	8082                	ret
    80003216:	60e2                	ld	ra,24(sp)
    80003218:	6442                	ld	s0,16(sp)
    8000321a:	4785                	li	a5,1
    8000321c:	c09c                	sw	a5,0(s1)
    8000321e:	6902                	ld	s2,0(sp)
    80003220:	64a2                	ld	s1,8(sp)
    80003222:	6105                	addi	sp,sp,32
    80003224:	8082                	ret
    80003226:	601c                	ld	a5,0(s0)
    80003228:	680c                	ld	a1,16(s0)
    8000322a:	6442                	ld	s0,16(sp)
    8000322c:	60e2                	ld	ra,24(sp)
    8000322e:	6902                	ld	s2,0(sp)
    80003230:	6388                	ld	a0,0(a5)
    80003232:	00848613          	addi	a2,s1,8
    80003236:	64a2                	ld	s1,8(sp)
    80003238:	6105                	addi	sp,sp,32
    8000323a:	4120106f          	j	8000464c <fdt_get_address>

000000008000323e <finisher_exit>:
    8000323e:	00012797          	auipc	a5,0x12
    80003242:	ef27b783          	ld	a5,-270(a5) # 80015130 <finisher>
    80003246:	cf99                	beqz	a5,80003264 <finisher_exit+0x26>
    80003248:	e511                	bnez	a0,80003254 <finisher_exit+0x16>
    8000324a:	6715                	lui	a4,0x5
    8000324c:	55570713          	addi	a4,a4,1365 # 5555 <MEM_START-0x7fffaaab>
    80003250:	c398                	sw	a4,0(a5)
    80003252:	8082                	ret
    80003254:	670d                	lui	a4,0x3
    80003256:	0105151b          	slliw	a0,a0,0x10
    8000325a:	33370713          	addi	a4,a4,819 # 3333 <MEM_START-0x7fffcccd>
    8000325e:	8d59                	or	a0,a0,a4
    80003260:	2501                	sext.w	a0,a0
    80003262:	c388                	sw	a0,0(a5)
    80003264:	8082                	ret

0000000080003266 <query_finisher>:
    80003266:	715d                	addi	sp,sp,-80
    80003268:	00000797          	auipc	a5,0x0
    8000326c:	f5678793          	addi	a5,a5,-170 # 800031be <finisher_open>
    80003270:	ec3e                	sd	a5,24(sp)
    80003272:	00000797          	auipc	a5,0x0
    80003276:	f5678793          	addi	a5,a5,-170 # 800031c8 <finisher_prop>
    8000327a:	f03e                	sd	a5,32(sp)
    8000327c:	00000797          	auipc	a5,0x0
    80003280:	f2878793          	addi	a5,a5,-216 # 800031a4 <finisher_done>
    80003284:	f43e                	sd	a5,40(sp)
    80003286:	082c                	addi	a1,sp,24
    80003288:	003c                	addi	a5,sp,8
    8000328a:	e486                	sd	ra,72(sp)
    8000328c:	f802                	sd	zero,48(sp)
    8000328e:	fc3e                	sd	a5,56(sp)
    80003290:	286010ef          	jal	ra,80004516 <fdt_scan>
    80003294:	60a6                	ld	ra,72(sp)
    80003296:	6161                	addi	sp,sp,80
    80003298:	8082                	ret

000000008000329a <get_f32_reg>:
    8000329a:	e0000553          	fmv.x.w	a0,ft0
    8000329e:	00028067          	jr	t0
    800032a2:	e0008553          	fmv.x.w	a0,ft1
    800032a6:	00028067          	jr	t0
    800032aa:	e0010553          	fmv.x.w	a0,ft2
    800032ae:	00028067          	jr	t0
    800032b2:	e0018553          	fmv.x.w	a0,ft3
    800032b6:	00028067          	jr	t0
    800032ba:	e0020553          	fmv.x.w	a0,ft4
    800032be:	00028067          	jr	t0
    800032c2:	e0028553          	fmv.x.w	a0,ft5
    800032c6:	00028067          	jr	t0
    800032ca:	e0030553          	fmv.x.w	a0,ft6
    800032ce:	00028067          	jr	t0
    800032d2:	e0038553          	fmv.x.w	a0,ft7
    800032d6:	00028067          	jr	t0
    800032da:	e0040553          	fmv.x.w	a0,fs0
    800032de:	00028067          	jr	t0
    800032e2:	e0048553          	fmv.x.w	a0,fs1
    800032e6:	00028067          	jr	t0
    800032ea:	e0050553          	fmv.x.w	a0,fa0
    800032ee:	00028067          	jr	t0
    800032f2:	e0058553          	fmv.x.w	a0,fa1
    800032f6:	00028067          	jr	t0
    800032fa:	e0060553          	fmv.x.w	a0,fa2
    800032fe:	00028067          	jr	t0
    80003302:	e0068553          	fmv.x.w	a0,fa3
    80003306:	00028067          	jr	t0
    8000330a:	e0070553          	fmv.x.w	a0,fa4
    8000330e:	00028067          	jr	t0
    80003312:	e0078553          	fmv.x.w	a0,fa5
    80003316:	00028067          	jr	t0
    8000331a:	e0080553          	fmv.x.w	a0,fa6
    8000331e:	00028067          	jr	t0
    80003322:	e0088553          	fmv.x.w	a0,fa7
    80003326:	00028067          	jr	t0
    8000332a:	e0090553          	fmv.x.w	a0,fs2
    8000332e:	00028067          	jr	t0
    80003332:	e0098553          	fmv.x.w	a0,fs3
    80003336:	00028067          	jr	t0
    8000333a:	e00a0553          	fmv.x.w	a0,fs4
    8000333e:	00028067          	jr	t0
    80003342:	e00a8553          	fmv.x.w	a0,fs5
    80003346:	00028067          	jr	t0
    8000334a:	e00b0553          	fmv.x.w	a0,fs6
    8000334e:	00028067          	jr	t0
    80003352:	e00b8553          	fmv.x.w	a0,fs7
    80003356:	00028067          	jr	t0
    8000335a:	e00c0553          	fmv.x.w	a0,fs8
    8000335e:	00028067          	jr	t0
    80003362:	e00c8553          	fmv.x.w	a0,fs9
    80003366:	00028067          	jr	t0
    8000336a:	e00d0553          	fmv.x.w	a0,fs10
    8000336e:	00028067          	jr	t0
    80003372:	e00d8553          	fmv.x.w	a0,fs11
    80003376:	00028067          	jr	t0
    8000337a:	e00e0553          	fmv.x.w	a0,ft8
    8000337e:	00028067          	jr	t0
    80003382:	e00e8553          	fmv.x.w	a0,ft9
    80003386:	00028067          	jr	t0
    8000338a:	e00f0553          	fmv.x.w	a0,ft10
    8000338e:	00028067          	jr	t0
    80003392:	e00f8553          	fmv.x.w	a0,ft11
    80003396:	00028067          	jr	t0

000000008000339a <put_f32_reg>:
    8000339a:	f0050053          	fmv.w.x	ft0,a0
    8000339e:	00028067          	jr	t0
    800033a2:	f00500d3          	fmv.w.x	ft1,a0
    800033a6:	00028067          	jr	t0
    800033aa:	f0050153          	fmv.w.x	ft2,a0
    800033ae:	00028067          	jr	t0
    800033b2:	f00501d3          	fmv.w.x	ft3,a0
    800033b6:	00028067          	jr	t0
    800033ba:	f0050253          	fmv.w.x	ft4,a0
    800033be:	00028067          	jr	t0
    800033c2:	f00502d3          	fmv.w.x	ft5,a0
    800033c6:	00028067          	jr	t0
    800033ca:	f0050353          	fmv.w.x	ft6,a0
    800033ce:	00028067          	jr	t0
    800033d2:	f00503d3          	fmv.w.x	ft7,a0
    800033d6:	00028067          	jr	t0
    800033da:	f0050453          	fmv.w.x	fs0,a0
    800033de:	00028067          	jr	t0
    800033e2:	f00504d3          	fmv.w.x	fs1,a0
    800033e6:	00028067          	jr	t0
    800033ea:	f0050553          	fmv.w.x	fa0,a0
    800033ee:	00028067          	jr	t0
    800033f2:	f00505d3          	fmv.w.x	fa1,a0
    800033f6:	00028067          	jr	t0
    800033fa:	f0050653          	fmv.w.x	fa2,a0
    800033fe:	00028067          	jr	t0
    80003402:	f00506d3          	fmv.w.x	fa3,a0
    80003406:	00028067          	jr	t0
    8000340a:	f0050753          	fmv.w.x	fa4,a0
    8000340e:	00028067          	jr	t0
    80003412:	f00507d3          	fmv.w.x	fa5,a0
    80003416:	00028067          	jr	t0
    8000341a:	f0050853          	fmv.w.x	fa6,a0
    8000341e:	00028067          	jr	t0
    80003422:	f00508d3          	fmv.w.x	fa7,a0
    80003426:	00028067          	jr	t0
    8000342a:	f0050953          	fmv.w.x	fs2,a0
    8000342e:	00028067          	jr	t0
    80003432:	f00509d3          	fmv.w.x	fs3,a0
    80003436:	00028067          	jr	t0
    8000343a:	f0050a53          	fmv.w.x	fs4,a0
    8000343e:	00028067          	jr	t0
    80003442:	f0050ad3          	fmv.w.x	fs5,a0
    80003446:	00028067          	jr	t0
    8000344a:	f0050b53          	fmv.w.x	fs6,a0
    8000344e:	00028067          	jr	t0
    80003452:	f0050bd3          	fmv.w.x	fs7,a0
    80003456:	00028067          	jr	t0
    8000345a:	f0050c53          	fmv.w.x	fs8,a0
    8000345e:	00028067          	jr	t0
    80003462:	f0050cd3          	fmv.w.x	fs9,a0
    80003466:	00028067          	jr	t0
    8000346a:	f0050d53          	fmv.w.x	fs10,a0
    8000346e:	00028067          	jr	t0
    80003472:	f0050dd3          	fmv.w.x	fs11,a0
    80003476:	00028067          	jr	t0
    8000347a:	f0050e53          	fmv.w.x	ft8,a0
    8000347e:	00028067          	jr	t0
    80003482:	f0050ed3          	fmv.w.x	ft9,a0
    80003486:	00028067          	jr	t0
    8000348a:	f0050f53          	fmv.w.x	ft10,a0
    8000348e:	00028067          	jr	t0
    80003492:	f0050fd3          	fmv.w.x	ft11,a0
    80003496:	00028067          	jr	t0

000000008000349a <get_f64_reg>:
    8000349a:	e2000553          	fmv.x.d	a0,ft0
    8000349e:	00028067          	jr	t0
    800034a2:	e2008553          	fmv.x.d	a0,ft1
    800034a6:	00028067          	jr	t0
    800034aa:	e2010553          	fmv.x.d	a0,ft2
    800034ae:	00028067          	jr	t0
    800034b2:	e2018553          	fmv.x.d	a0,ft3
    800034b6:	00028067          	jr	t0
    800034ba:	e2020553          	fmv.x.d	a0,ft4
    800034be:	00028067          	jr	t0
    800034c2:	e2028553          	fmv.x.d	a0,ft5
    800034c6:	00028067          	jr	t0
    800034ca:	e2030553          	fmv.x.d	a0,ft6
    800034ce:	00028067          	jr	t0
    800034d2:	e2038553          	fmv.x.d	a0,ft7
    800034d6:	00028067          	jr	t0
    800034da:	e2040553          	fmv.x.d	a0,fs0
    800034de:	00028067          	jr	t0
    800034e2:	e2048553          	fmv.x.d	a0,fs1
    800034e6:	00028067          	jr	t0
    800034ea:	e2050553          	fmv.x.d	a0,fa0
    800034ee:	00028067          	jr	t0
    800034f2:	e2058553          	fmv.x.d	a0,fa1
    800034f6:	00028067          	jr	t0
    800034fa:	e2060553          	fmv.x.d	a0,fa2
    800034fe:	00028067          	jr	t0
    80003502:	e2068553          	fmv.x.d	a0,fa3
    80003506:	00028067          	jr	t0
    8000350a:	e2070553          	fmv.x.d	a0,fa4
    8000350e:	00028067          	jr	t0
    80003512:	e2078553          	fmv.x.d	a0,fa5
    80003516:	00028067          	jr	t0
    8000351a:	e2080553          	fmv.x.d	a0,fa6
    8000351e:	00028067          	jr	t0
    80003522:	e2088553          	fmv.x.d	a0,fa7
    80003526:	00028067          	jr	t0
    8000352a:	e2090553          	fmv.x.d	a0,fs2
    8000352e:	00028067          	jr	t0
    80003532:	e2098553          	fmv.x.d	a0,fs3
    80003536:	00028067          	jr	t0
    8000353a:	e20a0553          	fmv.x.d	a0,fs4
